(lp0
(lp1
I10
aI8
aI6
aI3
aI0
aI0
aI0
aI0
aI0
aI0
aI4
aI9
aI8
aI3
aI0
aI0
aI0
aI0
aI0
aI2
aI6
aI10
aI8
aI6
aI3
aI0
aI0
aI0
aI0
aI6
aI8
aI3
aI0
aI0
aI0
aI0
aI0
aI4
aI6
aI7
aI10
aI8
aI6
aI3
aI0
aI0
aI0
aI0
aI6
aI8
aI3
aI0
aI0
aI0
aI0
aI0
aI4
aI6
aI9
aI8
aI3
aI0
aI0
aI0
aI0
aI0
aI0
aI0
aI2
aa(lp2
cnumpy.core.multiarray
scalar
p3
(cnumpy
dtype
p4
(S'i8'
p5
I0
I1
tp6
Rp7
(I3
S'<'
p8
NNNI-1
I-1
I0
tp9
bS'\x02\x00\x00\x00\x00\x00\x00\x00'
p10
tp11
Rp12
ag3
(g7
S'\x00\x00\x00\x00\x00\x00\x00\x00'
p13
tp14
Rp15
ag3
(g7
S'\x01\x00\x00\x00\x00\x00\x00\x00'
p16
tp17
Rp18
ag3
(g7
S'\x00\x00\x00\x00\x00\x00\x00\x00'
p19
tp20
Rp21
ag3
(g7
S'\x02\x00\x00\x00\x00\x00\x00\x00'
p22
tp23
Rp24
ag3
(g7
S'\x02\x00\x00\x00\x00\x00\x00\x00'
p25
tp26
Rp27
ag3
(g7
S'\x00\x00\x00\x00\x00\x00\x00\x00'
p28
tp29
Rp30
ag3
(g7
S'\x01\x00\x00\x00\x00\x00\x00\x00'
p31
tp32
Rp33
ag3
(g7
S'\x00\x00\x00\x00\x00\x00\x00\x00'
p34
tp35
Rp36
ag3
(g7
S'\x02\x00\x00\x00\x00\x00\x00\x00'
p37
tp38
Rp39
ag3
(g7
S'\x00\x00\x00\x00\x00\x00\x00\x00'
p40
tp41
Rp42
ag3
(g7
S'\x01\x00\x00\x00\x00\x00\x00\x00'
p43
tp44
Rp45
ag3
(g7
S'\x02\x00\x00\x00\x00\x00\x00\x00'
p46
tp47
Rp48
ag3
(g7
S'\x00\x00\x00\x00\x00\x00\x00\x00'
p49
tp50
Rp51
ag3
(g7
S'\x00\x00\x00\x00\x00\x00\x00\x00'
p52
tp53
Rp54
ag3
(g7
S'\x02\x00\x00\x00\x00\x00\x00\x00'
p55
tp56
Rp57
ag3
(g7
S'\x02\x00\x00\x00\x00\x00\x00\x00'
p58
tp59
Rp60
ag3
(g7
S'\x01\x00\x00\x00\x00\x00\x00\x00'
p61
tp62
Rp63
ag3
(g7
S'\x02\x00\x00\x00\x00\x00\x00\x00'
p64
tp65
Rp66
ag3
(g7
S'\x00\x00\x00\x00\x00\x00\x00\x00'
p67
tp68
Rp69
ag3
(g7
S'\x00\x00\x00\x00\x00\x00\x00\x00'
p70
tp71
Rp72
ag3
(g7
S'\x02\x00\x00\x00\x00\x00\x00\x00'
p73
tp74
Rp75
ag3
(g7
S'\x02\x00\x00\x00\x00\x00\x00\x00'
p76
tp77
Rp78
ag3
(g7
S'\x01\x00\x00\x00\x00\x00\x00\x00'
p79
tp80
Rp81
ag3
(g7
S'\x00\x00\x00\x00\x00\x00\x00\x00'
p82
tp83
Rp84
ag3
(g7
S'\x00\x00\x00\x00\x00\x00\x00\x00'
p85
tp86
Rp87
ag3
(g7
S'\x00\x00\x00\x00\x00\x00\x00\x00'
p88
tp89
Rp90
ag3
(g7
S'\x01\x00\x00\x00\x00\x00\x00\x00'
p91
tp92
Rp93
ag3
(g7
S'\x00\x00\x00\x00\x00\x00\x00\x00'
p94
tp95
Rp96
ag3
(g7
S'\x01\x00\x00\x00\x00\x00\x00\x00'
p97
tp98
Rp99
ag3
(g7
S'\x00\x00\x00\x00\x00\x00\x00\x00'
p100
tp101
Rp102
ag3
(g7
S'\x00\x00\x00\x00\x00\x00\x00\x00'
p103
tp104
Rp105
ag3
(g7
S'\x02\x00\x00\x00\x00\x00\x00\x00'
p106
tp107
Rp108
ag3
(g7
S'\x01\x00\x00\x00\x00\x00\x00\x00'
p109
tp110
Rp111
ag3
(g7
S'\x02\x00\x00\x00\x00\x00\x00\x00'
p112
tp113
Rp114
ag3
(g7
S'\x02\x00\x00\x00\x00\x00\x00\x00'
p115
tp116
Rp117
ag3
(g7
S'\x00\x00\x00\x00\x00\x00\x00\x00'
p118
tp119
Rp120
ag3
(g7
S'\x02\x00\x00\x00\x00\x00\x00\x00'
p121
tp122
Rp123
ag3
(g7
S'\x01\x00\x00\x00\x00\x00\x00\x00'
p124
tp125
Rp126
ag3
(g7
S'\x00\x00\x00\x00\x00\x00\x00\x00'
p127
tp128
Rp129
ag3
(g7
S'\x01\x00\x00\x00\x00\x00\x00\x00'
p130
tp131
Rp132
ag3
(g7
S'\x02\x00\x00\x00\x00\x00\x00\x00'
p133
tp134
Rp135
ag3
(g7
S'\x01\x00\x00\x00\x00\x00\x00\x00'
p136
tp137
Rp138
ag3
(g7
S'\x00\x00\x00\x00\x00\x00\x00\x00'
p139
tp140
Rp141
ag3
(g7
S'\x00\x00\x00\x00\x00\x00\x00\x00'
p142
tp143
Rp144
ag3
(g7
S'\x00\x00\x00\x00\x00\x00\x00\x00'
p145
tp146
Rp147
ag3
(g7
S'\x01\x00\x00\x00\x00\x00\x00\x00'
p148
tp149
Rp150
ag3
(g7
S'\x00\x00\x00\x00\x00\x00\x00\x00'
p151
tp152
Rp153
ag3
(g7
S'\x01\x00\x00\x00\x00\x00\x00\x00'
p154
tp155
Rp156
ag3
(g7
S'\x00\x00\x00\x00\x00\x00\x00\x00'
p157
tp158
Rp159
ag3
(g7
S'\x00\x00\x00\x00\x00\x00\x00\x00'
p160
tp161
Rp162
ag3
(g7
S'\x02\x00\x00\x00\x00\x00\x00\x00'
p163
tp164
Rp165
ag3
(g7
S'\x01\x00\x00\x00\x00\x00\x00\x00'
p166
tp167
Rp168
ag3
(g7
S'\x02\x00\x00\x00\x00\x00\x00\x00'
p169
tp170
Rp171
ag3
(g7
S'\x02\x00\x00\x00\x00\x00\x00\x00'
p172
tp173
Rp174
ag3
(g7
S'\x00\x00\x00\x00\x00\x00\x00\x00'
p175
tp176
Rp177
ag3
(g7
S'\x02\x00\x00\x00\x00\x00\x00\x00'
p178
tp179
Rp180
ag3
(g7
S'\x00\x00\x00\x00\x00\x00\x00\x00'
p181
tp182
Rp183
ag3
(g7
S'\x01\x00\x00\x00\x00\x00\x00\x00'
p184
tp185
Rp186
ag3
(g7
S'\x00\x00\x00\x00\x00\x00\x00\x00'
p187
tp188
Rp189
ag3
(g7
S'\x00\x00\x00\x00\x00\x00\x00\x00'
p190
tp191
Rp192
ag3
(g7
S'\x02\x00\x00\x00\x00\x00\x00\x00'
p193
tp194
Rp195
ag3
(g7
S'\x02\x00\x00\x00\x00\x00\x00\x00'
p196
tp197
Rp198
ag3
(g7
S'\x02\x00\x00\x00\x00\x00\x00\x00'
p199
tp200
Rp201
ag3
(g7
S'\x02\x00\x00\x00\x00\x00\x00\x00'
p202
tp203
Rp204
ag3
(g7
S'\x00\x00\x00\x00\x00\x00\x00\x00'
p205
tp206
Rp207
ag3
(g7
S'\x02\x00\x00\x00\x00\x00\x00\x00'
p208
tp209
Rp210
ag3
(g7
S'\x02\x00\x00\x00\x00\x00\x00\x00'
p211
tp212
Rp213
ag3
(g7
S'\x01\x00\x00\x00\x00\x00\x00\x00'
p214
tp215
Rp216
aa(lp217
I4
aI3
aI3
aI2
aI3
aI4
aI3
aI3
aI2
aI3
aI2
aI2
aI3
aI2
aI1
aI2
aI3
aI3
aI4
aI3
aI2
aI3
aI4
aI4
aI3
aI2
aI1
aI1
aI1
aI1
aI1
aI1
aI2
aI2
aI3
aI4
aI3
aI4
aI4
aI3
aI3
aI4
aI4
aI3
aI2
aI1
aI1
aI1
aI1
aI1
aI1
aI2
aI2
aI3
aI4
aI3
aI4
aI3
aI3
aI2
aI1
aI2
aI3
aI4
aI4
aI3
aI4
aI4
aI4
aa(lp218
I1
aI2
aI3
aI4
aI5
aI6
aI7
aI8
aI9
aI10
aI11
aI12
aI13
aI14
aI15
aI16
aI17
aI18
aI19
aI20
aI21
aI22
aI23
aI24
aI25
aI26
aI27
aI28
aI29
aI30
aI31
aI32
aI33
aI34
aI35
aI36
aI37
aI38
aI39
aI40
aI41
aI42
aI43
aI44
aI45
aI46
aI47
aI48
aI49
aI50
aI51
aI52
aI53
aI54
aI55
aI56
aI57
aI58
aI59
aI60
aI61
aI62
aI63
aI64
aI65
aI66
aI67
aI68
aI69
aaI181
a(lp219
cdatetime
datetime
p220
(S'\x07\xe2\x01\x01\x0c\x00\x00\x00\x00\x00'
p221
tp222
Rp223
ag220
(S'\x07\xe2\x01\x01\r\x00\x00\x00\x00\x00'
p224
tp225
Rp226
ag220
(S'\x07\xe2\x01\x01\x0f\x00\x00\x00\x00\x00'
p227
tp228
Rp229
ag220
(S'\x07\xe2\x01\x01\x11\x00\x00\x00\x00\x00'
p230
tp231
Rp232
ag220
(S'\x07\xe2\x01\x01\x14\x00\x00\x00\x00\x00'
p233
tp234
Rp235
ag220
(S'\x07\xe2\x01\x01\x16\x00\x00\x00\x00\x00'
p236
tp237
Rp238
ag220
(S'\x07\xe2\x01\x01\x17\x00\x00\x00\x00\x00'
p239
tp240
Rp241
ag220
(S'\x07\xe2\x01\x02\x01\x00\x00\x00\x00\x00'
p242
tp243
Rp244
ag220
(S'\x07\xe2\x01\x02\x03\x00\x00\x00\x00\x00'
p245
tp246
Rp247
ag220
(S'\x07\xe2\x01\x02\x06\x00\x00\x00\x00\x00'
p248
tp249
Rp250
ag220
(S'\x07\xe2\x01\x02\x08\x00\x00\x00\x00\x00'
p251
tp252
Rp253
ag220
(S'\x07\xe2\x01\x02\x0b\x00\x00\x00\x00\x00'
p254
tp255
Rp256
ag220
(S'\x07\xe2\x01\x02\x0e\x00\x00\x00\x00\x00'
p257
tp258
Rp259
ag220
(S'\x07\xe2\x01\x02\x10\x00\x00\x00\x00\x00'
p260
tp261
Rp262
ag220
(S'\x07\xe2\x01\x02\x13\x00\x00\x00\x00\x00'
p263
tp264
Rp265
ag220
(S'\x07\xe2\x01\x02\x17\x00\x00\x00\x00\x00'
p266
tp267
Rp268
ag220
(S'\x07\xe2\x01\x03\x02\x00\x00\x00\x00\x00'
p269
tp270
Rp271
ag220
(S'\x07\xe2\x01\x03\x04\x00\x00\x00\x00\x00'
p272
tp273
Rp274
ag220
(S'\x07\xe2\x01\x03\x06\x00\x00\x00\x00\x00'
p275
tp276
Rp277
ag220
(S'\x07\xe2\x01\x03\x07\x00\x00\x00\x00\x00'
p278
tp279
Rp280
ag220
(S'\x07\xe2\x01\x03\t\x00\x00\x00\x00\x00'
p281
tp282
Rp283
ag220
(S'\x07\xe2\x01\x03\x0c\x00\x00\x00\x00\x00'
p284
tp285
Rp286
ag220
(S'\x07\xe2\x01\x03\x0e\x00\x00\x00\x00\x00'
p287
tp288
Rp289
ag220
(S'\x07\xe2\x01\x03\x0f\x00\x00\x00\x00\x00'
p290
tp291
Rp292
ag220
(S'\x07\xe2\x01\x03\x10\x00\x00\x00\x00\x00'
p293
tp294
Rp295
ag220
(S'\x07\xe2\x01\x03\x12\x00\x00\x00\x00\x00'
p296
tp297
Rp298
ag220
(S'\x07\xe2\x01\x03\x15\x00\x00\x00\x00\x00'
p299
tp300
Rp301
ag220
(S'\x07\xe2\x01\x04\x01\x00\x00\x00\x00\x00'
p302
tp303
Rp304
ag220
(S'\x07\xe2\x01\x04\x05\x00\x00\x00\x00\x00'
p305
tp306
Rp307
ag220
(S'\x07\xe2\x01\x04\t\x00\x00\x00\x00\x00'
p308
tp309
Rp310
ag220
(S'\x07\xe2\x01\x04\r\x00\x00\x00\x00\x00'
p311
tp312
Rp313
ag220
(S'\x07\xe2\x01\x04\x11\x00\x00\x00\x00\x00'
p314
tp315
Rp316
ag220
(S'\x07\xe2\x01\x04\x15\x00\x00\x00\x00\x00'
p317
tp318
Rp319
ag220
(S'\x07\xe2\x01\x05\x00\x00\x00\x00\x00\x00'
p320
tp321
Rp322
ag220
(S'\x07\xe2\x01\x05\x03\x00\x00\x00\x00\x00'
p323
tp324
Rp325
ag220
(S'\x07\xe2\x01\x05\x05\x00\x00\x00\x00\x00'
p326
tp327
Rp328
ag220
(S'\x07\xe2\x01\x05\x06\x00\x00\x00\x00\x00'
p329
tp330
Rp331
ag220
(S'\x07\xe2\x01\x05\x08\x00\x00\x00\x00\x00'
p332
tp333
Rp334
ag220
(S'\x07\xe2\x01\x05\t\x00\x00\x00\x00\x00'
p335
tp336
Rp337
ag220
(S'\x07\xe2\x01\x05\n\x00\x00\x00\x00\x00'
p338
tp339
Rp340
ag220
(S'\x07\xe2\x01\x05\x0c\x00\x00\x00\x00\x00'
p341
tp342
Rp343
ag220
(S'\x07\xe2\x01\x05\x0e\x00\x00\x00\x00\x00'
p344
tp345
Rp346
ag220
(S'\x07\xe2\x01\x05\x0f\x00\x00\x00\x00\x00'
p347
tp348
Rp349
ag220
(S'\x07\xe2\x01\x05\x10\x00\x00\x00\x00\x00'
p350
tp351
Rp352
ag220
(S'\x07\xe2\x01\x05\x12\x00\x00\x00\x00\x00'
p353
tp354
Rp355
ag220
(S'\x07\xe2\x01\x05\x15\x00\x00\x00\x00\x00'
p356
tp357
Rp358
ag220
(S'\x07\xe2\x01\x06\x01\x00\x00\x00\x00\x00'
p359
tp360
Rp361
ag220
(S'\x07\xe2\x01\x06\x05\x00\x00\x00\x00\x00'
p362
tp363
Rp364
ag220
(S'\x07\xe2\x01\x06\t\x00\x00\x00\x00\x00'
p365
tp366
Rp367
ag220
(S'\x07\xe2\x01\x06\r\x00\x00\x00\x00\x00'
p368
tp369
Rp370
ag220
(S'\x07\xe2\x01\x06\x11\x00\x00\x00\x00\x00'
p371
tp372
Rp373
ag220
(S'\x07\xe2\x01\x06\x15\x00\x00\x00\x00\x00'
p374
tp375
Rp376
ag220
(S'\x07\xe2\x01\x07\x00\x00\x00\x00\x00\x00'
p377
tp378
Rp379
ag220
(S'\x07\xe2\x01\x07\x03\x00\x00\x00\x00\x00'
p380
tp381
Rp382
ag220
(S'\x07\xe2\x01\x07\x05\x00\x00\x00\x00\x00'
p383
tp384
Rp385
ag220
(S'\x07\xe2\x01\x07\x06\x00\x00\x00\x00\x00'
p386
tp387
Rp388
ag220
(S'\x07\xe2\x01\x07\x08\x00\x00\x00\x00\x00'
p389
tp390
Rp391
ag220
(S'\x07\xe2\x01\x07\t\x00\x00\x00\x00\x00'
p392
tp393
Rp394
ag220
(S'\x07\xe2\x01\x07\x0b\x00\x00\x00\x00\x00'
p395
tp396
Rp397
ag220
(S'\x07\xe2\x01\x07\r\x00\x00\x00\x00\x00'
p398
tp399
Rp400
ag220
(S'\x07\xe2\x01\x07\x10\x00\x00\x00\x00\x00'
p401
tp402
Rp403
ag220
(S'\x07\xe2\x01\x07\x14\x00\x00\x00\x00\x00'
p404
tp405
Rp406
ag220
(S'\x07\xe2\x01\x07\x17\x00\x00\x00\x00\x00'
p407
tp408
Rp409
ag220
(S'\x07\xe2\x01\x08\x01\x00\x00\x00\x00\x00'
p410
tp411
Rp412
ag220
(S'\x07\xe2\x01\x08\x02\x00\x00\x00\x00\x00'
p413
tp414
Rp415
ag220
(S'\x07\xe2\x01\x08\x03\x00\x00\x00\x00\x00'
p416
tp417
Rp418
ag220
(S'\x07\xe2\x01\x08\x05\x00\x00\x00\x00\x00'
p419
tp420
Rp421
ag220
(S'\x07\xe2\x01\x08\x06\x00\x00\x00\x00\x00'
p422
tp423
Rp424
ag220
(S'\x07\xe2\x01\x08\x07\x00\x00\x00\x00\x00'
p425
tp426
Rp427
aa(lp428
I8
aI4
aI3
aI3
aI2
aI3
aI4
aI3
aI3
aI2
aI3
aI2
aI2
aI3
aI2
aI1
aI2
aI3
aI3
aI4
aI3
aI2
aI3
aI4
aI4
aI3
aI2
aI1
aI1
aI1
aI1
aI1
aI1
aI2
aI2
aI3
aI4
aI3
aI4
aI4
aI3
aI3
aI4
aI4
aI3
aI2
aI1
aI1
aI1
aI1
aI1
aI1
aI2
aI2
aI3
aI4
aI3
aI4
aI3
aI3
aI2
aI1
aI2
aI3
aI4
aI4
aI3
aI4
aI4
aa(lp429
g3
(g4
(S'f8'
p430
I0
I1
tp431
Rp432
(I3
S'<'
p433
NNNI-1
I-1
I0
tp434
bS'\x00ro\xeb4~\x11@'
p435
tp436
Rp437
aF5.5
aF5.5
aF5.5
aF5.5
ag3
(g432
S'\xb8\x1ao\xe0\xa0\xde\x13@'
p438
tp439
Rp440
ag3
(g432
S'\xe4h\xcd\xae\xfek\x12@'
p441
tp442
Rp443
ag3
(g432
S'\x90*\x8c\xc5\xf0x\x10@'
p444
tp445
Rp446
ag3
(g432
S'\x19\x8227\x0fB\r@'
p447
tp448
Rp449
ag3
(g432
S'z<\x92\xaf\xda\x04\t@'
p450
tp451
Rp452
ag3
(g432
S'\xadx\x81)]\xce\x05@'
p453
tp454
Rp455
aF5.5
aF5.5
aF5.5
aF5.5
ag3
(g432
S'i\xc8\xc1N \x01\x13@'
p456
tp457
Rp458
ag3
(g432
S'C\x10\xf5O\xae\x96\x10@'
p459
tp460
Rp461
ag3
(g432
S'Q\xdbu\xc67z\r@'
p462
tp463
Rp464
ag3
(g432
S'\xa4\xb7\x99\xfeq\xfd\t@'
p465
tp466
Rp467
ag3
(g432
S'`\x88\xccw\xf9\xa5\x07@'
p468
tp469
Rp470
aF5.5
aF5.5
aF5.5
aF5.5
aF5.5
aF5.5
ag3
(g432
S'*\x7fg\x84\x98f\x13@'
p471
tp472
Rp473
ag3
(g432
S'\xcc\x17\xa8\x88r\x96\x10@'
p474
tp475
Rp476
ag3
(g432
S'mg\xcb\x10\x1b\xf9\x0b@'
p477
tp478
Rp479
ag3
(g432
S':\x9e!\xdb/2\x07@'
p480
tp481
Rp482
aF5.5
aF5.5
aF5.5
ag3
(g432
S'*\x7fg\x84\x98f\x13@'
p483
tp484
Rp485
ag3
(g432
S'\xb2\xbe\xff\x04\xbc\xf5\x10@'
p486
tp487
Rp488
ag3
(g432
S'\xee\xc63\x9d\xc8-\x0e@'
p489
tp490
Rp491
ag3
(g432
S'D\xa2\xf8\xe5\xce\xa7\x0b@'
p492
tp493
Rp494
ag3
(g432
S'\xd0\x86d\xc2\x10G\x08@'
p495
tp496
Rp497
aF5.5
aF5.5
aF5.5
aF5.5
aF5.5
aF5.5
aF5.5
ag3
(g432
S'*\x7fg\x84\x98f\x13@'
p498
tp499
Rp500
ag3
(g432
S'\xcc\x17\xa8\x88r\x96\x10@'
p501
tp502
Rp503
ag3
(g432
S'mg\xcb\x10\x1b\xf9\x0b@'
p504
tp505
Rp506
ag3
(g432
S':\x9e!\xdb/2\x07@'
p507
tp508
Rp509
aF5.5
aF5.5
aF5.5
ag3
(g432
S'*\x7fg\x84\x98f\x13@'
p510
tp511
Rp512
ag3
(g432
S'\xb2\xbe\xff\x04\xbc\xf5\x10@'
p513
tp514
Rp515
ag3
(g432
S'\xee\xc63\x9d\xc8-\x0e@'
p516
tp517
Rp518
ag3
(g432
S'D\xa2\xf8\xe5\xce\xa7\x0b@'
p519
tp520
Rp521
ag3
(g432
S'\xd0\x86d\xc2\x10G\x08@'
p522
tp523
Rp524
aF5.5
aF5.5
aF5.5
aF5.5
aF5.5
ag3
(g432
S'*\x7fg\x84\x98f\x13@'
p525
tp526
Rp527
ag3
(g432
S'\x9e>\x9e\x1btf\x11@'
p528
tp529
Rp530
ag3
(g432
S'ZgK\x85\x9d\x0b\x10@'
p531
tp532
Rp533
ag3
(g432
S'\xfd\x91!z\x1b}\r@'
p534
tp535
Rp536
ag3
(g432
S'\x19\xc0\xca\xf1)\x00\n@'
p537
tp538
Rp539
ag3
(g432
S'-\xc4\x9e\x11\x92\xa8\x07@'
p540
tp541
Rp542
ag3
(g432
S'\xd5ZT\xd8\x9el\x05@'
p543
tp544
Rp545
aa(lp546
I7
aI10
aI10
aI10
aI10
aI8
aI7
aI6
aI5
aI3
aI2
aI10
aI10
aI10
aI10
aI8
aI6
aI5
aI3
aI3
aI10
aI10
aI10
aI10
aI10
aI10
aI8
aI6
aI4
aI2
aI10
aI10
aI10
aI8
aI6
aI5
aI4
aI3
aI10
aI10
aI10
aI10
aI10
aI10
aI10
aI8
aI6
aI4
aI2
aI10
aI10
aI10
aI8
aI6
aI5
aI4
aI3
aI10
aI10
aI10
aI10
aI10
aI8
aI7
aI6
aI5
aI3
aI3
aI2
aaF262.3188405797101
a(lp547
I0
aI1
aI1
aI1
aI0
aI0
aI0
aI0
aI0
aI0
aI1
aI1
aI1
aI1
aI0
aI0
aI0
aI0
aI0
aI0
aI1
aI1
aI1
aI1
aI1
aI0
aI0
aI0
aI0
aI1
aI1
aI1
aI0
aI0
aI0
aI0
aI0
aI1
aI1
aI1
aI1
aI1
aI1
aI1
aI0
aI0
aI0
aI0
aI1
aI1
aI1
aI0
aI0
aI0
aI0
aI0
aI1
aI1
aI1
aI1
aI1
aI0
aI0
aI0
aI0
aI0
aI0
aI0
aI0
aa(lp548
F1.0
aF0.8
aF0.6
aF0.3
aF0.0
aF0.0
aF0.0
aF0.0
aF0.0
aF0.0
aF0.4
aF0.9
aF0.8
aF0.3
aF0.0
aF0.0
aF0.0
aF0.0
aF0.0
aF0.2
aF0.6
aF1.0
aF0.8
aF0.6
aF0.3
aF0.0
aF0.0
aF0.0
aF0.0
aF0.6
aF0.8
aF0.3
aF0.0
aF0.0
aF0.0
aF0.0
aF0.0
aF0.4
aF0.6
aF0.7
aF1.0
aF0.8
aF0.6
aF0.3
aF0.0
aF0.0
aF0.0
aF0.0
aF0.6
aF0.8
aF0.3
aF0.0
aF0.0
aF0.0
aF0.0
aF0.0
aF0.4
aF0.6
aF0.9
aF0.8
aF0.3
aF0.0
aF0.0
aF0.0
aF0.0
aF0.0
aF0.0
aF0.0
aF0.2
aa(lp549
F0.67
aF1.0
aF1.0
aF1.0
aF1.0
aF0.84
aF0.74
aF0.59
aF0.46
aF0.3
aF0.18
aF1.0
aF1.0
aF1.0
aF1.0
aF0.78
aF0.6
aF0.47
aF0.34
aF0.25
aF1.0
aF1.0
aF1.0
aF1.0
aF1.0
aF1.0
aF0.81
aF0.6
aF0.41
aF0.24
aF1.0
aF1.0
aF1.0
aF0.81
aF0.63
aF0.49
aF0.4
aF0.27
aF1.0
aF1.0
aF1.0
aF1.0
aF1.0
aF1.0
aF1.0
aF0.81
aF0.6
aF0.41
aF0.24
aF1.0
aF1.0
aF1.0
aF0.81
aF0.63
aF0.49
aF0.4
aF0.27
aF1.0
aF1.0
aF1.0
aF1.0
aF1.0
aF0.81
aF0.66
aF0.56
aF0.47
aF0.34
aF0.25
aF0.17
aa(lp550
I0
aI1
aI2
aI3
aI4
aI5
aI6
aI7
aI8
aI9
aI10
aI11
aI12
aI13
aI14
aI15
aI16
aI17
aI18
aI19
aI20
aI21
aI22
aI23
aI24
aI25
aI26
aI27
aI28
aI29
aI30
aI31
aI32
aI33
aI34
aI35
aI36
aI37
aI38
aI39
aI40
aI41
aI42
aI43
aI44
aI45
aI46
aI47
aI48
aI49
aI50
aI51
aI52
aI53
aI54
aI55
aI56
aI57
aI58
aI59
aI60
aI61
aI62
aI63
aI64
aI65
aI66
aI67
aI68
aI69
aI70
aI71
aI72
aI73
aI74
aI75
aI76
aI77
aI78
aI79
aI80
aI81
aI82
aI83
aI84
aI85
aI86
aI87
aI88
aI89
aI90
aI91
aI92
aI93
aI94
aI95
aI96
aI97
aI98
aI99
aI100
aI101
aI102
aI103
aI104
aI105
aI106
aI107
aI108
aI109
aI110
aI111
aI112
aI113
aI114
aI115
aI116
aI117
aI118
aI119
aI120
aI121
aI122
aI123
aI124
aI125
aI126
aI127
aI128
aI129
aI130
aI131
aI132
aI133
aI134
aI135
aI136
aI137
aI138
aI139
aI140
aI141
aI142
aI143
aI144
aI145
aI146
aI147
aI148
aI149
aI150
aI151
aI152
aI153
aI154
aI155
aI156
aI157
aI158
aI159
aI160
aI161
aI162
aI163
aI164
aI165
aI166
aI167
aI168
aI169
aI170
aI171
aI172
aI173
aI174
aI175
aI176
aI177
aI178
aI179
aI180
aI181
aI182
aI183
aI184
aI185
aI186
aI187
aI188
aI189
aI190
aI191
aI192
aI193
aI194
aI195
aI196
aI197
aI198
aI199
aI200
aI201
aI202
aI203
aI204
aI205
aI206
aI207
aI208
aI209
aI210
aI211
aI212
aI213
aI214
aI215
aI216
aI217
aI218
aI219
aI220
aI221
aI222
aI223
aI224
aI225
aI226
aI227
aI228
aI229
aI230
aI231
aI232
aI233
aI234
aI235
aI236
aI237
aI238
aI239
aI240
aI241
aI242
aI243
aI244
aI245
aI246
aI247
aI248
aI249
aI250
aI251
aI252
aI253
aI254
aI255
aI256
aI257
aI258
aI259
aI260
aI261
aI262
aI263
aI264
aI265
aI266
aI267
aI268
aI269
aI270
aI271
aI272
aI273
aI274
aI275
aI276
aI277
aI278
aI279
aI280
aI281
aI282
aI283
aI284
aI285
aI286
aI287
aI288
aI289
aI290
aI291
aI292
aI293
aI294
aI295
aI296
aI297
aI298
aI299
aI300
aI301
aI302
aI303
aI304
aI305
aI306
aI307
aI308
aI309
aI310
aI311
aI312
aI313
aI314
aI315
aI316
aI317
aI318
aI319
aI320
aI321
aI322
aI323
aI324
aI325
aI326
aI327
aI328
aI329
aI330
aI331
aI332
aI333
aI334
aI335
aI336
aI337
aI338
aI339
aI340
aI341
aI342
aI343
aI344
aI345
aI346
aI347
aI348
aI349
aI350
aI351
aI352
aI353
aI354
aI355
aI356
aI357
aI358
aI359
aI360
aI361
aI362
aI363
aI364
aI365
aI366
aI367
aI368
aI369
aI370
aI371
aI372
aI373
aI374
aI375
aI376
aI377
aI378
aI379
aI380
aI381
aI382
aI383
aI384
aI385
aI386
aI387
aI388
aI389
aI390
aI391
aI392
aI393
aI394
aI395
aI396
aI397
aI398
aI399
aI400
aI401
aI402
aI403
aI404
aI405
aI406
aI407
aI408
aI409
aI410
aI411
aI412
aI413
aI414
aI415
aI416
aI417
aI418
aI419
aI420
aI421
aI422
aI423
aI424
aI425
aI426
aI427
aI428
aI429
aI430
aI431
aI432
aI433
aI434
aI435
aI436
aI437
aI438
aI439
aI440
aI441
aI442
aI443
aI444
aI445
aI446
aI447
aI448
aI449
aI450
aI451
aI452
aI453
aI454
aI455
aI456
aI457
aI458
aI459
aI460
aI461
aI462
aI463
aI464
aI465
aI466
aI467
aI468
aI469
aI470
aI471
aI472
aI473
aI474
aI475
aI476
aI477
aI478
aI479
aI480
aI481
aI482
aI483
aI484
aI485
aI486
aI487
aI488
aI489
aI490
aI491
aI492
aI493
aI494
aI495
aI496
aI497
aI498
aI499
aI500
aI501
aI502
aI503
aI504
aI505
aI506
aI507
aI508
aI509
aI510
aI511
aI512
aI513
aI514
aI515
aI516
aI517
aI518
aI519
aI520
aI521
aI522
aI523
aI524
aI525
aI526
aI527
aI528
aI529
aI530
aI531
aI532
aI533
aI534
aI535
aI536
aI537
aI538
aI539
aI540
aI541
aI542
aI543
aI544
aI545
aI546
aI547
aI548
aI549
aI550
aI551
aI552
aI553
aI554
aI555
aI556
aI557
aI558
aI559
aI560
aI561
aI562
aI563
aI564
aI565
aI566
aI567
aI568
aI569
aI570
aI571
aI572
aI573
aI574
aI575
aI576
aI577
aI578
aI579
aI580
aI581
aI582
aI583
aI584
aI585
aI586
aI587
aI588
aI589
aI590
aI591
aI592
aI593
aI594
aI595
aI596
aI597
aI598
aI599
aI600
aI601
aI602
aI603
aI604
aI605
aI606
aI607
aI608
aI609
aI610
aI611
aI612
aI613
aI614
aI615
aI616
aI617
aI618
aI619
aI620
aI621
aI622
aI623
aI624
aI625
aI626
aI627
aI628
aI629
aI630
aI631
aI632
aI633
aI634
aI635
aI636
aI637
aI638
aI639
aI640
aI641
aI642
aI643
aI644
aI645
aI646
aI647
aI648
aI649
aI650
aI651
aI652
aI653
aI654
aI655
aI656
aI657
aI658
aI659
aI660
aI661
aI662
aI663
aI664
aI665
aI666
aI667
aI668
aI669
aI670
aI671
aI672
aI673
aI674
aI675
aI676
aI677
aI678
aI679
aI680
aI681
aI682
aI683
aI684
aI685
aI686
aI687
aI688
aI689
aI690
aI691
aI692
aI693
aI694
aI695
aI696
aI697
aI698
aI699
aI700
aI701
aI702
aI703
aI704
aI705
aI706
aI707
aI708
aI709
aI710
aI711
aI712
aI713
aI714
aI715
aI716
aI717
aI718
aI719
aI720
aI721
aI722
aI723
aI724
aI725
aI726
aI727
aI728
aI729
aI730
aI731
aI732
aI733
aI734
aI735
aI736
aI737
aI738
aI739
aI740
aI741
aI742
aI743
aI744
aI745
aI746
aI747
aI748
aI749
aI750
aI751
aI752
aI753
aI754
aI755
aI756
aI757
aI758
aI759
aI760
aI761
aI762
aI763
aI764
aI765
aI766
aI767
aI768
aI769
aI770
aI771
aI772
aI773
aI774
aI775
aI776
aI777
aI778
aI779
aI780
aI781
aI782
aI783
aI784
aI785
aI786
aI787
aI788
aI789
aI790
aI791
aI792
aI793
aI794
aI795
aI796
aI797
aI798
aI799
aI800
aI801
aI802
aI803
aI804
aI805
aI806
aI807
aI808
aI809
aI810
aI811
aI812
aI813
aI814
aI815
aI816
aI817
aI818
aI819
aI820
aI821
aI822
aI823
aI824
aI825
aI826
aI827
aI828
aI829
aI830
aI831
aI832
aI833
aI834
aI835
aI836
aI837
aI838
aI839
aI840
aI841
aI842
aI843
aI844
aI845
aI846
aI847
aI848
aI849
aI850
aI851
aI852
aI853
aI854
aI855
aI856
aI857
aI858
aI859
aI860
aI861
aI862
aI863
aI864
aI865
aI866
aI867
aI868
aI869
aI870
aI871
aI872
aI873
aI874
aI875
aI876
aI877
aI878
aI879
aI880
aI881
aI882
aI883
aI884
aI885
aI886
aI887
aI888
aI889
aI890
aI891
aI892
aI893
aI894
aI895
aI896
aI897
aI898
aI899
aI900
aI901
aI902
aI903
aI904
aI905
aI906
aI907
aI908
aI909
aI910
aI911
aI912
aI913
aI914
aI915
aI916
aI917
aI918
aI919
aI920
aI921
aI922
aI923
aI924
aI925
aI926
aI927
aI928
aI929
aI930
aI931
aI932
aI933
aI934
aI935
aI936
aI937
aI938
aI939
aI940
aI941
aI942
aI943
aI944
aI945
aI946
aI947
aI948
aI949
aI950
aI951
aI952
aI953
aI954
aI955
aI956
aI957
aI958
aI959
aI960
aI961
aI962
aI963
aI964
aI965
aI966
aI967
aI968
aI969
aI970
aI971
aI972
aI973
aI974
aI975
aI976
aI977
aI978
aI979
aI980
aI981
aI982
aI983
aI984
aI985
aI986
aI987
aI988
aI989
aI990
aI991
aI992
aI993
aI994
aI995
aI996
aI997
aI998
aI999
aI1000
aI1001
aI1002
aI1003
aI1004
aI1005
aI1006
aI1007
aI1008
aI1009
aI1010
aI1011
aI1012
aI1013
aI1014
aI1015
aI1016
aI1017
aI1018
aI1019
aI1020
aI1021
aI1022
aI1023
aI1024
aI1025
aI1026
aI1027
aI1028
aI1029
aI1030
aI1031
aI1032
aI1033
aI1034
aI1035
aI1036
aI1037
aI1038
aI1039
aI1040
aI1041
aI1042
aI1043
aI1044
aI1045
aI1046
aI1047
aI1048
aI1049
aI1050
aI1051
aI1052
aI1053
aI1054
aI1055
aI1056
aI1057
aI1058
aI1059
aI1060
aI1061
aI1062
aI1063
aI1064
aI1065
aI1066
aI1067
aI1068
aI1069
aI1070
aI1071
aI1072
aI1073
aI1074
aI1075
aI1076
aI1077
aI1078
aI1079
aI1080
aI1081
aI1082
aI1083
aI1084
aI1085
aI1086
aI1087
aI1088
aI1089
aI1090
aI1091
aI1092
aI1093
aI1094
aI1095
aI1096
aI1097
aI1098
aI1099
aI1100
aI1101
aI1102
aI1103
aI1104
aI1105
aI1106
aI1107
aI1108
aI1109
aI1110
aI1111
aI1112
aI1113
aI1114
aI1115
aI1116
aI1117
aI1118
aI1119
aI1120
aI1121
aI1122
aI1123
aI1124
aI1125
aI1126
aI1127
aI1128
aI1129
aI1130
aI1131
aI1132
aI1133
aI1134
aI1135
aI1136
aI1137
aI1138
aI1139
aI1140
aI1141
aI1142
aI1143
aI1144
aI1145
aI1146
aI1147
aI1148
aI1149
aI1150
aI1151
aI1152
aI1153
aI1154
aI1155
aI1156
aI1157
aI1158
aI1159
aI1160
aI1161
aI1162
aI1163
aI1164
aI1165
aI1166
aI1167
aI1168
aI1169
aI1170
aI1171
aI1172
aI1173
aI1174
aI1175
aI1176
aI1177
aI1178
aI1179
aI1180
aI1181
aI1182
aI1183
aI1184
aI1185
aI1186
aI1187
aI1188
aI1189
aI1190
aI1191
aI1192
aI1193
aI1194
aI1195
aI1196
aI1197
aI1198
aI1199
aI1200
aI1201
aI1202
aI1203
aI1204
aI1205
aI1206
aI1207
aI1208
aI1209
aI1210
aI1211
aI1212
aI1213
aI1214
aI1215
aI1216
aI1217
aI1218
aI1219
aI1220
aI1221
aI1222
aI1223
aI1224
aI1225
aI1226
aI1227
aI1228
aI1229
aI1230
aI1231
aI1232
aI1233
aI1234
aI1235
aI1236
aI1237
aI1238
aI1239
aI1240
aI1241
aI1242
aI1243
aI1244
aI1245
aI1246
aI1247
aI1248
aI1249
aI1250
aI1251
aI1252
aI1253
aI1254
aI1255
aI1256
aI1257
aI1258
aI1259
aI1260
aI1261
aI1262
aI1263
aI1264
aI1265
aI1266
aI1267
aI1268
aI1269
aI1270
aI1271
aI1272
aI1273
aI1274
aI1275
aI1276
aI1277
aI1278
aI1279
aI1280
aI1281
aI1282
aI1283
aI1284
aI1285
aI1286
aI1287
aI1288
aI1289
aI1290
aI1291
aI1292
aI1293
aI1294
aI1295
aI1296
aI1297
aI1298
aI1299
aI1300
aI1301
aI1302
aI1303
aI1304
aI1305
aI1306
aI1307
aI1308
aI1309
aI1310
aI1311
aI1312
aI1313
aI1314
aI1315
aI1316
aI1317
aI1318
aI1319
aI1320
aI1321
aI1322
aI1323
aI1324
aI1325
aI1326
aI1327
aI1328
aI1329
aI1330
aI1331
aI1332
aI1333
aI1334
aI1335
aI1336
aI1337
aI1338
aI1339
aI1340
aI1341
aI1342
aI1343
aI1344
aI1345
aI1346
aI1347
aI1348
aI1349
aI1350
aI1351
aI1352
aI1353
aI1354
aI1355
aI1356
aI1357
aI1358
aI1359
aI1360
aI1361
aI1362
aI1363
aI1364
aI1365
aI1366
aI1367
aI1368
aI1369
aI1370
aI1371
aI1372
aI1373
aI1374
aI1375
aI1376
aI1377
aI1378
aI1379
aI1380
aI1381
aI1382
aI1383
aI1384
aI1385
aI1386
aI1387
aI1388
aI1389
aI1390
aI1391
aI1392
aI1393
aI1394
aI1395
aI1396
aI1397
aI1398
aI1399
aI1400
aI1401
aI1402
aI1403
aI1404
aI1405
aI1406
aI1407
aI1408
aI1409
aI1410
aI1411
aI1412
aI1413
aI1414
aI1415
aI1416
aI1417
aI1418
aI1419
aI1420
aI1421
aI1422
aI1423
aI1424
aI1425
aI1426
aI1427
aI1428
aI1429
aI1430
aI1431
aI1432
aI1433
aI1434
aI1435
aI1436
aI1437
aI1438
aI1439
aI1440
aI1441
aI1442
aI1443
aI1444
aI1445
aI1446
aI1447
aI1448
aI1449
aI1450
aI1451
aI1452
aI1453
aI1454
aI1455
aI1456
aI1457
aI1458
aI1459
aI1460
aI1461
aI1462
aI1463
aI1464
aI1465
aI1466
aI1467
aI1468
aI1469
aI1470
aI1471
aI1472
aI1473
aI1474
aI1475
aI1476
aI1477
aI1478
aI1479
aI1480
aI1481
aI1482
aI1483
aI1484
aI1485
aI1486
aI1487
aI1488
aI1489
aI1490
aI1491
aI1492
aI1493
aI1494
aI1495
aI1496
aI1497
aI1498
aI1499
aI1500
aI1501
aI1502
aI1503
aI1504
aI1505
aI1506
aI1507
aI1508
aI1509
aI1510
aI1511
aI1512
aI1513
aI1514
aI1515
aI1516
aI1517
aI1518
aI1519
aI1520
aI1521
aI1522
aI1523
aI1524
aI1525
aI1526
aI1527
aI1528
aI1529
aI1530
aI1531
aI1532
aI1533
aI1534
aI1535
aI1536
aI1537
aI1538
aI1539
aI1540
aI1541
aI1542
aI1543
aI1544
aI1545
aI1546
aI1547
aI1548
aI1549
aI1550
aI1551
aI1552
aI1553
aI1554
aI1555
aI1556
aI1557
aI1558
aI1559
aI1560
aI1561
aI1562
aI1563
aI1564
aI1565
aI1566
aI1567
aI1568
aI1569
aI1570
aI1571
aI1572
aI1573
aI1574
aI1575
aI1576
aI1577
aI1578
aI1579
aI1580
aI1581
aI1582
aI1583
aI1584
aI1585
aI1586
aI1587
aI1588
aI1589
aI1590
aI1591
aI1592
aI1593
aI1594
aI1595
aI1596
aI1597
aI1598
aI1599
aI1600
aI1601
aI1602
aI1603
aI1604
aI1605
aI1606
aI1607
aI1608
aI1609
aI1610
aI1611
aI1612
aI1613
aI1614
aI1615
aI1616
aI1617
aI1618
aI1619
aI1620
aI1621
aI1622
aI1623
aI1624
aI1625
aI1626
aI1627
aI1628
aI1629
aI1630
aI1631
aI1632
aI1633
aI1634
aI1635
aI1636
aI1637
aI1638
aI1639
aI1640
aI1641
aI1642
aI1643
aI1644
aI1645
aI1646
aI1647
aI1648
aI1649
aI1650
aI1651
aI1652
aI1653
aI1654
aI1655
aI1656
aI1657
aI1658
aI1659
aI1660
aI1661
aI1662
aI1663
aI1664
aI1665
aI1666
aI1667
aI1668
aI1669
aI1670
aI1671
aI1672
aI1673
aI1674
aI1675
aI1676
aI1677
aI1678
aI1679
aI1680
aI1681
aI1682
aI1683
aI1684
aI1685
aI1686
aI1687
aI1688
aI1689
aI1690
aI1691
aI1692
aI1693
aI1694
aI1695
aI1696
aI1697
aI1698
aI1699
aI1700
aI1701
aI1702
aI1703
aI1704
aI1705
aI1706
aI1707
aI1708
aI1709
aI1710
aI1711
aI1712
aI1713
aI1714
aI1715
aI1716
aI1717
aI1718
aI1719
aI1720
aI1721
aI1722
aI1723
aI1724
aI1725
aI1726
aI1727
aI1728
aI1729
aI1730
aI1731
aI1732
aI1733
aI1734
aI1735
aI1736
aI1737
aI1738
aI1739
aI1740
aI1741
aI1742
aI1743
aI1744
aI1745
aI1746
aI1747
aI1748
aI1749
aI1750
aI1751
aI1752
aI1753
aI1754
aI1755
aI1756
aI1757
aI1758
aI1759
aI1760
aI1761
aI1762
aI1763
aI1764
aI1765
aI1766
aI1767
aI1768
aI1769
aI1770
aI1771
aI1772
aI1773
aI1774
aI1775
aI1776
aI1777
aI1778
aI1779
aI1780
aI1781
aI1782
aI1783
aI1784
aI1785
aI1786
aI1787
aI1788
aI1789
aI1790
aI1791
aI1792
aI1793
aI1794
aI1795
aI1796
aI1797
aI1798
aI1799
aI1800
aI1801
aI1802
aI1803
aI1804
aI1805
aI1806
aI1807
aI1808
aI1809
aI1810
aI1811
aI1812
aI1813
aI1814
aI1815
aI1816
aI1817
aI1818
aI1819
aI1820
aI1821
aI1822
aI1823
aI1824
aI1825
aI1826
aI1827
aI1828
aI1829
aI1830
aI1831
aI1832
aI1833
aI1834
aI1835
aI1836
aI1837
aI1838
aI1839
aI1840
aI1841
aI1842
aI1843
aI1844
aI1845
aI1846
aI1847
aI1848
aI1849
aI1850
aI1851
aI1852
aI1853
aI1854
aI1855
aI1856
aI1857
aI1858
aI1859
aI1860
aI1861
aI1862
aI1863
aI1864
aI1865
aI1866
aI1867
aI1868
aI1869
aI1870
aI1871
aI1872
aI1873
aI1874
aI1875
aI1876
aI1877
aI1878
aI1879
aI1880
aI1881
aI1882
aI1883
aI1884
aI1885
aI1886
aI1887
aI1888
aI1889
aI1890
aI1891
aI1892
aI1893
aI1894
aI1895
aI1896
aI1897
aI1898
aI1899
aI1900
aI1901
aI1902
aI1903
aI1904
aI1905
aI1906
aI1907
aI1908
aI1909
aI1910
aI1911
aI1912
aI1913
aI1914
aI1915
aI1916
aI1917
aI1918
aI1919
aI1920
aI1921
aI1922
aI1923
aI1924
aI1925
aI1926
aI1927
aI1928
aI1929
aI1930
aI1931
aI1932
aI1933
aI1934
aI1935
aI1936
aI1937
aI1938
aI1939
aI1940
aI1941
aI1942
aI1943
aI1944
aI1945
aI1946
aI1947
aI1948
aI1949
aI1950
aI1951
aI1952
aI1953
aI1954
aI1955
aI1956
aI1957
aI1958
aI1959
aI1960
aI1961
aI1962
aI1963
aI1964
aI1965
aI1966
aI1967
aI1968
aI1969
aI1970
aI1971
aI1972
aI1973
aI1974
aI1975
aI1976
aI1977
aI1978
aI1979
aI1980
aI1981
aI1982
aI1983
aI1984
aI1985
aI1986
aI1987
aI1988
aI1989
aI1990
aI1991
aI1992
aI1993
aI1994
aI1995
aI1996
aI1997
aI1998
aI1999
aI2000
aI2001
aI2002
aI2003
aI2004
aI2005
aI2006
aI2007
aI2008
aI2009
aI2010
aI2011
aI2012
aI2013
aI2014
aI2015
aI2016
aI2017
aI2018
aI2019
aI2020
aI2021
aI2022
aI2023
aI2024
aI2025
aI2026
aI2027
aI2028
aI2029
aI2030
aI2031
aI2032
aI2033
aI2034
aI2035
aI2036
aI2037
aI2038
aI2039
aI2040
aI2041
aI2042
aI2043
aI2044
aI2045
aI2046
aI2047
aI2048
aI2049
aI2050
aI2051
aI2052
aI2053
aI2054
aI2055
aI2056
aI2057
aI2058
aI2059
aI2060
aI2061
aI2062
aI2063
aI2064
aI2065
aI2066
aI2067
aI2068
aI2069
aI2070
aI2071
aI2072
aI2073
aI2074
aI2075
aI2076
aI2077
aI2078
aI2079
aI2080
aI2081
aI2082
aI2083
aI2084
aI2085
aI2086
aI2087
aI2088
aI2089
aI2090
aI2091
aI2092
aI2093
aI2094
aI2095
aI2096
aI2097
aI2098
aI2099
aI2100
aI2101
aI2102
aI2103
aI2104
aI2105
aI2106
aI2107
aI2108
aI2109
aI2110
aI2111
aI2112
aI2113
aI2114
aI2115
aI2116
aI2117
aI2118
aI2119
aI2120
aI2121
aI2122
aI2123
aI2124
aI2125
aI2126
aI2127
aI2128
aI2129
aI2130
aI2131
aI2132
aI2133
aI2134
aI2135
aI2136
aI2137
aI2138
aI2139
aI2140
aI2141
aI2142
aI2143
aI2144
aI2145
aI2146
aI2147
aI2148
aI2149
aI2150
aI2151
aI2152
aI2153
aI2154
aI2155
aI2156
aI2157
aI2158
aI2159
aI2160
aI2161
aI2162
aI2163
aI2164
aI2165
aI2166
aI2167
aI2168
aI2169
aI2170
aI2171
aI2172
aI2173
aI2174
aI2175
aI2176
aI2177
aI2178
aI2179
aI2180
aI2181
aI2182
aI2183
aI2184
aI2185
aI2186
aI2187
aI2188
aI2189
aI2190
aI2191
aI2192
aI2193
aI2194
aI2195
aI2196
aI2197
aI2198
aI2199
aI2200
aI2201
aI2202
aI2203
aI2204
aI2205
aI2206
aI2207
aI2208
aI2209
aI2210
aI2211
aI2212
aI2213
aI2214
aI2215
aI2216
aI2217
aI2218
aI2219
aI2220
aI2221
aI2222
aI2223
aI2224
aI2225
aI2226
aI2227
aI2228
aI2229
aI2230
aI2231
aI2232
aI2233
aI2234
aI2235
aI2236
aI2237
aI2238
aI2239
aI2240
aI2241
aI2242
aI2243
aI2244
aI2245
aI2246
aI2247
aI2248
aI2249
aI2250
aI2251
aI2252
aI2253
aI2254
aI2255
aI2256
aI2257
aI2258
aI2259
aI2260
aI2261
aI2262
aI2263
aI2264
aI2265
aI2266
aI2267
aI2268
aI2269
aI2270
aI2271
aI2272
aI2273
aI2274
aI2275
aI2276
aI2277
aI2278
aI2279
aI2280
aI2281
aI2282
aI2283
aI2284
aI2285
aI2286
aI2287
aI2288
aI2289
aI2290
aI2291
aI2292
aI2293
aI2294
aI2295
aI2296
aI2297
aI2298
aI2299
aI2300
aI2301
aI2302
aI2303
aI2304
aI2305
aI2306
aI2307
aI2308
aI2309
aI2310
aI2311
aI2312
aI2313
aI2314
aI2315
aI2316
aI2317
aI2318
aI2319
aI2320
aI2321
aI2322
aI2323
aI2324
aI2325
aI2326
aI2327
aI2328
aI2329
aI2330
aI2331
aI2332
aI2333
aI2334
aI2335
aI2336
aI2337
aI2338
aI2339
aI2340
aI2341
aI2342
aI2343
aI2344
aI2345
aI2346
aI2347
aI2348
aI2349
aI2350
aI2351
aI2352
aI2353
aI2354
aI2355
aI2356
aI2357
aI2358
aI2359
aI2360
aI2361
aI2362
aI2363
aI2364
aI2365
aI2366
aI2367
aI2368
aI2369
aI2370
aI2371
aI2372
aI2373
aI2374
aI2375
aI2376
aI2377
aI2378
aI2379
aI2380
aI2381
aI2382
aI2383
aI2384
aI2385
aI2386
aI2387
aI2388
aI2389
aI2390
aI2391
aI2392
aI2393
aI2394
aI2395
aI2396
aI2397
aI2398
aI2399
aI2400
aI2401
aI2402
aI2403
aI2404
aI2405
aI2406
aI2407
aI2408
aI2409
aI2410
aI2411
aI2412
aI2413
aI2414
aI2415
aI2416
aI2417
aI2418
aI2419
aI2420
aI2421
aI2422
aI2423
aI2424
aI2425
aI2426
aI2427
aI2428
aI2429
aI2430
aI2431
aI2432
aI2433
aI2434
aI2435
aI2436
aI2437
aI2438
aI2439
aI2440
aI2441
aI2442
aI2443
aI2444
aI2445
aI2446
aI2447
aI2448
aI2449
aI2450
aI2451
aI2452
aI2453
aI2454
aI2455
aI2456
aI2457
aI2458
aI2459
aI2460
aI2461
aI2462
aI2463
aI2464
aI2465
aI2466
aI2467
aI2468
aI2469
aI2470
aI2471
aI2472
aI2473
aI2474
aI2475
aI2476
aI2477
aI2478
aI2479
aI2480
aI2481
aI2482
aI2483
aI2484
aI2485
aI2486
aI2487
aI2488
aI2489
aI2490
aI2491
aI2492
aI2493
aI2494
aI2495
aI2496
aI2497
aI2498
aI2499
aI2500
aI2501
aI2502
aI2503
aI2504
aI2505
aI2506
aI2507
aI2508
aI2509
aI2510
aI2511
aI2512
aI2513
aI2514
aI2515
aI2516
aI2517
aI2518
aI2519
aI2520
aI2521
aI2522
aI2523
aI2524
aI2525
aI2526
aI2527
aI2528
aI2529
aI2530
aI2531
aI2532
aI2533
aI2534
aI2535
aI2536
aI2537
aI2538
aI2539
aI2540
aI2541
aI2542
aI2543
aI2544
aI2545
aI2546
aI2547
aI2548
aI2549
aI2550
aI2551
aI2552
aI2553
aI2554
aI2555
aI2556
aI2557
aI2558
aI2559
aI2560
aI2561
aI2562
aI2563
aI2564
aI2565
aI2566
aI2567
aI2568
aI2569
aI2570
aI2571
aI2572
aI2573
aI2574
aI2575
aI2576
aI2577
aI2578
aI2579
aI2580
aI2581
aI2582
aI2583
aI2584
aI2585
aI2586
aI2587
aI2588
aI2589
aI2590
aI2591
aI2592
aI2593
aI2594
aI2595
aI2596
aI2597
aI2598
aI2599
aI2600
aI2601
aI2602
aI2603
aI2604
aI2605
aI2606
aI2607
aI2608
aI2609
aI2610
aI2611
aI2612
aI2613
aI2614
aI2615
aI2616
aI2617
aI2618
aI2619
aI2620
aI2621
aI2622
aI2623
aI2624
aI2625
aI2626
aI2627
aI2628
aI2629
aI2630
aI2631
aI2632
aI2633
aI2634
aI2635
aI2636
aI2637
aI2638
aI2639
aI2640
aI2641
aI2642
aI2643
aI2644
aI2645
aI2646
aI2647
aI2648
aI2649
aI2650
aI2651
aI2652
aI2653
aI2654
aI2655
aI2656
aI2657
aI2658
aI2659
aI2660
aI2661
aI2662
aI2663
aI2664
aI2665
aI2666
aI2667
aI2668
aI2669
aI2670
aI2671
aI2672
aI2673
aI2674
aI2675
aI2676
aI2677
aI2678
aI2679
aI2680
aI2681
aI2682
aI2683
aI2684
aI2685
aI2686
aI2687
aI2688
aI2689
aI2690
aI2691
aI2692
aI2693
aI2694
aI2695
aI2696
aI2697
aI2698
aI2699
aI2700
aI2701
aI2702
aI2703
aI2704
aI2705
aI2706
aI2707
aI2708
aI2709
aI2710
aI2711
aI2712
aI2713
aI2714
aI2715
aI2716
aI2717
aI2718
aI2719
aI2720
aI2721
aI2722
aI2723
aI2724
aI2725
aI2726
aI2727
aI2728
aI2729
aI2730
aI2731
aI2732
aI2733
aI2734
aI2735
aI2736
aI2737
aI2738
aI2739
aI2740
aI2741
aI2742
aI2743
aI2744
aI2745
aI2746
aI2747
aI2748
aI2749
aI2750
aI2751
aI2752
aI2753
aI2754
aI2755
aI2756
aI2757
aI2758
aI2759
aI2760
aI2761
aI2762
aI2763
aI2764
aI2765
aI2766
aI2767
aI2768
aI2769
aI2770
aI2771
aI2772
aI2773
aI2774
aI2775
aI2776
aI2777
aI2778
aI2779
aI2780
aI2781
aI2782
aI2783
aI2784
aI2785
aI2786
aI2787
aI2788
aI2789
aI2790
aI2791
aI2792
aI2793
aI2794
aI2795
aI2796
aI2797
aI2798
aI2799
aI2800
aI2801
aI2802
aI2803
aI2804
aI2805
aI2806
aI2807
aI2808
aI2809
aI2810
aI2811
aI2812
aI2813
aI2814
aI2815
aI2816
aI2817
aI2818
aI2819
aI2820
aI2821
aI2822
aI2823
aI2824
aI2825
aI2826
aI2827
aI2828
aI2829
aI2830
aI2831
aI2832
aI2833
aI2834
aI2835
aI2836
aI2837
aI2838
aI2839
aI2840
aI2841
aI2842
aI2843
aI2844
aI2845
aI2846
aI2847
aI2848
aI2849
aI2850
aI2851
aI2852
aI2853
aI2854
aI2855
aI2856
aI2857
aI2858
aI2859
aI2860
aI2861
aI2862
aI2863
aI2864
aI2865
aI2866
aI2867
aI2868
aI2869
aI2870
aI2871
aI2872
aI2873
aI2874
aI2875
aI2876
aI2877
aI2878
aI2879
aI2880
aI2881
aI2882
aI2883
aI2884
aI2885
aI2886
aI2887
aI2888
aI2889
aI2890
aI2891
aI2892
aI2893
aI2894
aI2895
aI2896
aI2897
aI2898
aI2899
aI2900
aI2901
aI2902
aI2903
aI2904
aI2905
aI2906
aI2907
aI2908
aI2909
aI2910
aI2911
aI2912
aI2913
aI2914
aI2915
aI2916
aI2917
aI2918
aI2919
aI2920
aI2921
aI2922
aI2923
aI2924
aI2925
aI2926
aI2927
aI2928
aI2929
aI2930
aI2931
aI2932
aI2933
aI2934
aI2935
aI2936
aI2937
aI2938
aI2939
aI2940
aI2941
aI2942
aI2943
aI2944
aI2945
aI2946
aI2947
aI2948
aI2949
aI2950
aI2951
aI2952
aI2953
aI2954
aI2955
aI2956
aI2957
aI2958
aI2959
aI2960
aI2961
aI2962
aI2963
aI2964
aI2965
aI2966
aI2967
aI2968
aI2969
aI2970
aI2971
aI2972
aI2973
aI2974
aI2975
aI2976
aI2977
aI2978
aI2979
aI2980
aI2981
aI2982
aI2983
aI2984
aI2985
aI2986
aI2987
aI2988
aI2989
aI2990
aI2991
aI2992
aI2993
aI2994
aI2995
aI2996
aI2997
aI2998
aI2999
aI3000
aI3001
aI3002
aI3003
aI3004
aI3005
aI3006
aI3007
aI3008
aI3009
aI3010
aI3011
aI3012
aI3013
aI3014
aI3015
aI3016
aI3017
aI3018
aI3019
aI3020
aI3021
aI3022
aI3023
aI3024
aI3025
aI3026
aI3027
aI3028
aI3029
aI3030
aI3031
aI3032
aI3033
aI3034
aI3035
aI3036
aI3037
aI3038
aI3039
aI3040
aI3041
aI3042
aI3043
aI3044
aI3045
aI3046
aI3047
aI3048
aI3049
aI3050
aI3051
aI3052
aI3053
aI3054
aI3055
aI3056
aI3057
aI3058
aI3059
aI3060
aI3061
aI3062
aI3063
aI3064
aI3065
aI3066
aI3067
aI3068
aI3069
aI3070
aI3071
aI3072
aI3073
aI3074
aI3075
aI3076
aI3077
aI3078
aI3079
aI3080
aI3081
aI3082
aI3083
aI3084
aI3085
aI3086
aI3087
aI3088
aI3089
aI3090
aI3091
aI3092
aI3093
aI3094
aI3095
aI3096
aI3097
aI3098
aI3099
aI3100
aI3101
aI3102
aI3103
aI3104
aI3105
aI3106
aI3107
aI3108
aI3109
aI3110
aI3111
aI3112
aI3113
aI3114
aI3115
aI3116
aI3117
aI3118
aI3119
aI3120
aI3121
aI3122
aI3123
aI3124
aI3125
aI3126
aI3127
aI3128
aI3129
aI3130
aI3131
aI3132
aI3133
aI3134
aI3135
aI3136
aI3137
aI3138
aI3139
aI3140
aI3141
aI3142
aI3143
aI3144
aI3145
aI3146
aI3147
aI3148
aI3149
aI3150
aI3151
aI3152
aI3153
aI3154
aI3155
aI3156
aI3157
aI3158
aI3159
aI3160
aI3161
aI3162
aI3163
aI3164
aI3165
aI3166
aI3167
aI3168
aI3169
aI3170
aI3171
aI3172
aI3173
aI3174
aI3175
aI3176
aI3177
aI3178
aI3179
aI3180
aI3181
aI3182
aI3183
aI3184
aI3185
aI3186
aI3187
aI3188
aI3189
aI3190
aI3191
aI3192
aI3193
aI3194
aI3195
aI3196
aI3197
aI3198
aI3199
aI3200
aI3201
aI3202
aI3203
aI3204
aI3205
aI3206
aI3207
aI3208
aI3209
aI3210
aI3211
aI3212
aI3213
aI3214
aI3215
aI3216
aI3217
aI3218
aI3219
aI3220
aI3221
aI3222
aI3223
aI3224
aI3225
aI3226
aI3227
aI3228
aI3229
aI3230
aI3231
aI3232
aI3233
aI3234
aI3235
aI3236
aI3237
aI3238
aI3239
aI3240
aI3241
aI3242
aI3243
aI3244
aI3245
aI3246
aI3247
aI3248
aI3249
aI3250
aI3251
aI3252
aI3253
aI3254
aI3255
aI3256
aI3257
aI3258
aI3259
aI3260
aI3261
aI3262
aI3263
aI3264
aI3265
aI3266
aI3267
aI3268
aI3269
aI3270
aI3271
aI3272
aI3273
aI3274
aI3275
aI3276
aI3277
aI3278
aI3279
aI3280
aI3281
aI3282
aI3283
aI3284
aI3285
aI3286
aI3287
aI3288
aI3289
aI3290
aI3291
aI3292
aI3293
aI3294
aI3295
aI3296
aI3297
aI3298
aI3299
aI3300
aI3301
aI3302
aI3303
aI3304
aI3305
aI3306
aI3307
aI3308
aI3309
aI3310
aI3311
aI3312
aI3313
aI3314
aI3315
aI3316
aI3317
aI3318
aI3319
aI3320
aI3321
aI3322
aI3323
aI3324
aI3325
aI3326
aI3327
aI3328
aI3329
aI3330
aI3331
aI3332
aI3333
aI3334
aI3335
aI3336
aI3337
aI3338
aI3339
aI3340
aI3341
aI3342
aI3343
aI3344
aI3345
aI3346
aI3347
aI3348
aI3349
aI3350
aI3351
aI3352
aI3353
aI3354
aI3355
aI3356
aI3357
aI3358
aI3359
aI3360
aI3361
aI3362
aI3363
aI3364
aI3365
aI3366
aI3367
aI3368
aI3369
aI3370
aI3371
aI3372
aI3373
aI3374
aI3375
aI3376
aI3377
aI3378
aI3379
aI3380
aI3381
aI3382
aI3383
aI3384
aI3385
aI3386
aI3387
aI3388
aI3389
aI3390
aI3391
aI3392
aI3393
aI3394
aI3395
aI3396
aI3397
aI3398
aI3399
aI3400
aI3401
aI3402
aI3403
aI3404
aI3405
aI3406
aI3407
aI3408
aI3409
aI3410
aI3411
aI3412
aI3413
aI3414
aI3415
aI3416
aI3417
aI3418
aI3419
aI3420
aI3421
aI3422
aI3423
aI3424
aI3425
aI3426
aI3427
aI3428
aI3429
aI3430
aI3431
aI3432
aI3433
aI3434
aI3435
aI3436
aI3437
aI3438
aI3439
aI3440
aI3441
aI3442
aI3443
aI3444
aI3445
aI3446
aI3447
aI3448
aI3449
aI3450
aI3451
aI3452
aI3453
aI3454
aI3455
aI3456
aI3457
aI3458
aI3459
aI3460
aI3461
aI3462
aI3463
aI3464
aI3465
aI3466
aI3467
aI3468
aI3469
aI3470
aI3471
aI3472
aI3473
aI3474
aI3475
aI3476
aI3477
aI3478
aI3479
aI3480
aI3481
aI3482
aI3483
aI3484
aI3485
aI3486
aI3487
aI3488
aI3489
aI3490
aI3491
aI3492
aI3493
aI3494
aI3495
aI3496
aI3497
aI3498
aI3499
aI3500
aI3501
aI3502
aI3503
aI3504
aI3505
aI3506
aI3507
aI3508
aI3509
aI3510
aI3511
aI3512
aI3513
aI3514
aI3515
aI3516
aI3517
aI3518
aI3519
aI3520
aI3521
aI3522
aI3523
aI3524
aI3525
aI3526
aI3527
aI3528
aI3529
aI3530
aI3531
aI3532
aI3533
aI3534
aI3535
aI3536
aI3537
aI3538
aI3539
aI3540
aI3541
aI3542
aI3543
aI3544
aI3545
aI3546
aI3547
aI3548
aI3549
aI3550
aI3551
aI3552
aI3553
aI3554
aI3555
aI3556
aI3557
aI3558
aI3559
aI3560
aI3561
aI3562
aI3563
aI3564
aI3565
aI3566
aI3567
aI3568
aI3569
aI3570
aI3571
aI3572
aI3573
aI3574
aI3575
aI3576
aI3577
aI3578
aI3579
aI3580
aI3581
aI3582
aI3583
aI3584
aI3585
aI3586
aI3587
aI3588
aI3589
aI3590
aI3591
aI3592
aI3593
aI3594
aI3595
aI3596
aI3597
aI3598
aI3599
aI3600
aI3601
aI3602
aI3603
aI3604
aI3605
aI3606
aI3607
aI3608
aI3609
aI3610
aI3611
aI3612
aI3613
aI3614
aI3615
aI3616
aI3617
aI3618
aI3619
aI3620
aI3621
aI3622
aI3623
aI3624
aI3625
aI3626
aI3627
aI3628
aI3629
aI3630
aI3631
aI3632
aI3633
aI3634
aI3635
aI3636
aI3637
aI3638
aI3639
aI3640
aI3641
aI3642
aI3643
aI3644
aI3645
aI3646
aI3647
aI3648
aI3649
aI3650
aI3651
aI3652
aI3653
aI3654
aI3655
aI3656
aI3657
aI3658
aI3659
aI3660
aI3661
aI3662
aI3663
aI3664
aI3665
aI3666
aI3667
aI3668
aI3669
aI3670
aI3671
aI3672
aI3673
aI3674
aI3675
aI3676
aI3677
aI3678
aI3679
aI3680
aI3681
aI3682
aI3683
aI3684
aI3685
aI3686
aI3687
aI3688
aI3689
aI3690
aI3691
aI3692
aI3693
aI3694
aI3695
aI3696
aI3697
aI3698
aI3699
aI3700
aI3701
aI3702
aI3703
aI3704
aI3705
aI3706
aI3707
aI3708
aI3709
aI3710
aI3711
aI3712
aI3713
aI3714
aI3715
aI3716
aI3717
aI3718
aI3719
aI3720
aI3721
aI3722
aI3723
aI3724
aI3725
aI3726
aI3727
aI3728
aI3729
aI3730
aI3731
aI3732
aI3733
aI3734
aI3735
aI3736
aI3737
aI3738
aI3739
aI3740
aI3741
aI3742
aI3743
aI3744
aI3745
aI3746
aI3747
aI3748
aI3749
aI3750
aI3751
aI3752
aI3753
aI3754
aI3755
aI3756
aI3757
aI3758
aI3759
aI3760
aI3761
aI3762
aI3763
aI3764
aI3765
aI3766
aI3767
aI3768
aI3769
aI3770
aI3771
aI3772
aI3773
aI3774
aI3775
aI3776
aI3777
aI3778
aI3779
aI3780
aI3781
aI3782
aI3783
aI3784
aI3785
aI3786
aI3787
aI3788
aI3789
aI3790
aI3791
aI3792
aI3793
aI3794
aI3795
aI3796
aI3797
aI3798
aI3799
aI3800
aI3801
aI3802
aI3803
aI3804
aI3805
aI3806
aI3807
aI3808
aI3809
aI3810
aI3811
aI3812
aI3813
aI3814
aI3815
aI3816
aI3817
aI3818
aI3819
aI3820
aI3821
aI3822
aI3823
aI3824
aI3825
aI3826
aI3827
aI3828
aI3829
aI3830
aI3831
aI3832
aI3833
aI3834
aI3835
aI3836
aI3837
aI3838
aI3839
aI3840
aI3841
aI3842
aI3843
aI3844
aI3845
aI3846
aI3847
aI3848
aI3849
aI3850
aI3851
aI3852
aI3853
aI3854
aI3855
aI3856
aI3857
aI3858
aI3859
aI3860
aI3861
aI3862
aI3863
aI3864
aI3865
aI3866
aI3867
aI3868
aI3869
aI3870
aI3871
aI3872
aI3873
aI3874
aI3875
aI3876
aI3877
aI3878
aI3879
aI3880
aI3881
aI3882
aI3883
aI3884
aI3885
aI3886
aI3887
aI3888
aI3889
aI3890
aI3891
aI3892
aI3893
aI3894
aI3895
aI3896
aI3897
aI3898
aI3899
aI3900
aI3901
aI3902
aI3903
aI3904
aI3905
aI3906
aI3907
aI3908
aI3909
aI3910
aI3911
aI3912
aI3913
aI3914
aI3915
aI3916
aI3917
aI3918
aI3919
aI3920
aI3921
aI3922
aI3923
aI3924
aI3925
aI3926
aI3927
aI3928
aI3929
aI3930
aI3931
aI3932
aI3933
aI3934
aI3935
aI3936
aI3937
aI3938
aI3939
aI3940
aI3941
aI3942
aI3943
aI3944
aI3945
aI3946
aI3947
aI3948
aI3949
aI3950
aI3951
aI3952
aI3953
aI3954
aI3955
aI3956
aI3957
aI3958
aI3959
aI3960
aI3961
aI3962
aI3963
aI3964
aI3965
aI3966
aI3967
aI3968
aI3969
aI3970
aI3971
aI3972
aI3973
aI3974
aI3975
aI3976
aI3977
aI3978
aI3979
aI3980
aI3981
aI3982
aI3983
aI3984
aI3985
aI3986
aI3987
aI3988
aI3989
aI3990
aI3991
aI3992
aI3993
aI3994
aI3995
aI3996
aI3997
aI3998
aI3999
aI4000
aI4001
aI4002
aI4003
aI4004
aI4005
aI4006
aI4007
aI4008
aI4009
aI4010
aI4011
aI4012
aI4013
aI4014
aI4015
aI4016
aI4017
aI4018
aI4019
aI4020
aI4021
aI4022
aI4023
aI4024
aI4025
aI4026
aI4027
aI4028
aI4029
aI4030
aI4031
aI4032
aI4033
aI4034
aI4035
aI4036
aI4037
aI4038
aI4039
aI4040
aI4041
aI4042
aI4043
aI4044
aI4045
aI4046
aI4047
aI4048
aI4049
aI4050
aI4051
aI4052
aI4053
aI4054
aI4055
aI4056
aI4057
aI4058
aI4059
aI4060
aI4061
aI4062
aI4063
aI4064
aI4065
aI4066
aI4067
aI4068
aI4069
aI4070
aI4071
aI4072
aI4073
aI4074
aI4075
aI4076
aI4077
aI4078
aI4079
aI4080
aI4081
aI4082
aI4083
aI4084
aI4085
aI4086
aI4087
aI4088
aI4089
aI4090
aI4091
aI4092
aI4093
aI4094
aI4095
aI4096
aI4097
aI4098
aI4099
aI4100
aI4101
aI4102
aI4103
aI4104
aI4105
aI4106
aI4107
aI4108
aI4109
aI4110
aI4111
aI4112
aI4113
aI4114
aI4115
aI4116
aI4117
aI4118
aI4119
aI4120
aI4121
aI4122
aI4123
aI4124
aI4125
aI4126
aI4127
aI4128
aI4129
aI4130
aI4131
aI4132
aI4133
aI4134
aI4135
aI4136
aI4137
aI4138
aI4139
aI4140
aI4141
aI4142
aI4143
aI4144
aI4145
aI4146
aI4147
aI4148
aI4149
aI4150
aI4151
aI4152
aI4153
aI4154
aI4155
aI4156
aI4157
aI4158
aI4159
aI4160
aI4161
aI4162
aI4163
aI4164
aI4165
aI4166
aI4167
aI4168
aI4169
aI4170
aI4171
aI4172
aI4173
aI4174
aI4175
aI4176
aI4177
aI4178
aI4179
aI4180
aI4181
aI4182
aI4183
aI4184
aa(lp551
I0
aI0
aI0
aI0
aI0
aI0
aI0
aI0
aI0
aI0
aI0
aI0
aI0
aI0
aI0
aI0
aI0
aI0
aI0
aI0
aI0
aI0
aI0
aI0
aI0
aI0
aI0
aI0
aI0
aI0
aI0
aI0
aI0
aI0
aI0
aI0
aI0
aI0
aI0
aI0
aI0
aI0
aI0
aI0
aI0
aI0
aI0
aI0
aI0
aI0
aI0
aI0
aI0
aI0
aI0
aI0
aI0
aI0
aI0
aI0
aI0
aI0
aI0
aI0
aI0
aI0
aI0
aI0
aI0
aI0
aI0
aI0
aI0
aI0
aI0
aI0
aI0
aI0
aI0
aI0
aI0
aI0
aI0
aI0
aI0
aI0
aI0
aI0
aI0
aI0
aI0
aI0
aI0
aI0
aI0
aI0
aI0
aI0
aI0
aI0
aI0
aI0
aI0
aI0
aI0
aI0
aI0
aI0
aI0
aI0
aI0
aI0
aI0
aI0
aI0
aI0
aI0
aI0
aI0
aI0
aI0
aI0
aI0
aI0
aI0
aI0
aI0
aI0
aI0
aI0
aI0
aI0
aI0
aI0
aI0
aI0
aI0
aI0
aI0
aI0
aI0
aI0
aI0
aI0
aI0
aI0
aI0
aI0
aI0
aI0
aI0
aI0
aI0
aI0
aI0
aI0
aI0
aI0
aI0
aI0
aI0
aI0
aI0
aI0
aI0
aI0
aI0
aI0
aI0
aI0
aI0
aI0
aI0
aI0
aI0
aI0
aI0
aI0
aI0
aI0
aI0
aI0
aI0
aI0
aI0
aI0
aI0
aI0
aI0
aI0
aI0
aI0
aI0
aI0
aI0
aI0
aI0
aI0
aI0
aI0
aI0
aI0
aI0
aI0
aI0
aI0
aI0
aI0
aI0
aI0
aI0
aI0
aI0
aI0
aI0
aI0
aI0
aI0
aI0
aI0
aI0
aI0
aI0
aI0
aI0
aI0
aI0
aI0
aI0
aI0
aI0
aI0
aI0
aI0
aI0
aI0
aI0
aI0
aI0
aI0
aI0
aI0
aI0
aI0
aI0
aI0
aI0
aI0
aI0
aI0
aI0
aI0
aI0
aI0
aI0
aI0
aI0
aI0
aI0
aI0
aI0
aI0
aI0
aI0
aI0
aI0
aI0
aI0
aI0
aI0
aI0
aI0
aI0
aI0
aI0
aI0
aI0
aI0
aI0
aI0
aI0
aI0
aI0
aI0
aI0
aI0
aI0
aI0
aI0
aI0
aI0
aI0
aI0
aI0
aI0
aI0
aI0
aI0
aI0
aI0
aI0
aI0
aI0
aI0
aI0
aI0
aI0
aI0
aI0
aI0
aI0
aI0
aI0
aI0
aI0
aI0
aI0
aI0
aI0
aI0
aI0
aI0
aI0
aI0
aI0
aI0
aI0
aI0
aI0
aI0
aI0
aI0
aI0
aI0
aI0
aI0
aI0
aI0
aI0
aI0
aI0
aI0
aI0
aI0
aI0
aI0
aI0
aI0
aI0
aI0
aI0
aI0
aI0
aI0
aI0
aI0
aI0
aI0
aI0
aI0
aI0
aI0
aI0
aI0
aI0
aI0
aI0
aI0
aI0
aI0
aI0
aI0
aI125
aI0
aI0
aI0
aI0
aI0
aI0
aI0
aI0
aI0
aI125
aI0
aI0
aI0
aI0
aI0
aI0
aI0
aI0
aI0
aI0
aI0
aI0
aI0
aI0
aI0
aI0
aI0
aI0
aI0
aI0
aI0
aI0
aI0
aI0
aI135
aI0
aI0
aI0
aI0
aI0
aI0
aI0
aI0
aI0
aI0
aI0
aI0
aI0
aI0
aI0
aI0
aI0
aI0
aI0
aI0
aI130
aI0
aI0
aI0
aI0
aI0
aI0
aI0
aI0
aI0
aI0
aI0
aI121
aI0
aI0
aI0
aI0
aI0
aI0
aI144
aI0
aI0
aI0
aI0
aI146
aI0
aI0
aI0
aI0
aI0
aI0
aI0
aI0
aI0
aI0
aI0
aI0
aI0
aI0
aI0
aI0
aI0
aI0
aI0
aI0
aI0
aI0
aI107
aI143
aI128
aI123
aI125
aI126
aI105
aI0
aI0
aI144
aI116
aI0
aI93
aI104
aI160
aI0
aI157
aI140
aI128
aI100
aI0
aI121
aI115
aI125
aI0
aI123
aI120
aI112
aI114
aI144
aI148
aI0
aI0
aI123
aI133
aI148
aI113
aI87
aI113
aI113
aI116
aI133
aI133
aI98
aI118
aI125
aI123
aI93
aI117
aI128
aI0
aI111
aI114
aI168
aI108
aI113
aI0
aI138
aI121
aI0
aI130
aI88
aI0
aI123
aI123
aI0
aI140
aI114
aI134
aI144
aI113
aI140
aI115
aI100
aI118
aI128
aI135
aI115
aI98
aI135
aI144
aI175
aI123
aI121
aI123
aI116
aI130
aI0
aI88
aI91
aI110
aI128
aI0
aI160
aI114
aI0
aI103
aI97
aI123
aI105
aI138
aI120
aI108
aI108
aI146
aI94
aI120
aI81
aI93
aI113
aI125
aI123
aI113
aI133
aI131
aI113
aI123
aI99
aI111
aI120
aI103
aI136
aI125
aI133
aI110
aI125
aI103
aI113
aI120
aI110
aI120
aI0
aI126
aI0
aI88
aI105
aI100
aI133
aI133
aI145
aI103
aI148
aI115
aI103
aI103
aI111
aI0
aI98
aI116
aI93
aI0
aI105
aI113
aI108
aI118
aI140
aI116
aI127
aI143
aI0
aI0
aI118
aI123
aI130
aI120
aI98
aI118
aI128
aI115
aI115
aI0
aI88
aI118
aI120
aI0
aI0
aI133
aI130
aI118
aI0
aI136
aI103
aI108
aI128
aI108
aI98
aI115
aI107
aI126
aI94
aI141
aI108
aI170
aI93
aI123
aI113
aI120
aI115
aI128
aI123
aI133
aI113
aI116
aI128
aI0
aI108
aI115
aI113
aI133
aI110
aI108
aI143
aI110
aI135
aI155
aI141
aI138
aI143
aI98
aI158
aI98
aI121
aI145
aI107
aI130
aI118
aI153
aI108
aI135
aI115
aI96
aI0
aI130
aI136
aI153
aI118
aI95
aI118
aI118
aI130
aI133
aI133
aI108
aI0
aI0
aI105
aI88
aI0
aI138
aI131
aI113
aI99
aI123
aI138
aI0
aI113
aI0
aI120
aI133
aI113
aI145
aI123
aI136
aI133
aI120
aI123
aI143
aI89
aI113
aI139
aI123
aI144
aI118
aI116
aI0
aI103
aI115
aI98
aI151
aI110
aI118
aI0
aI132
aI118
aI132
aI105
aI105
aI111
aI128
aI141
aI130
aI114
aI0
aI128
aI125
aI99
aI135
aI120
aI125
aI95
aI110
aI128
aI113
aI120
aI117
aI133
aI113
aI118
aI118
aI128
aI113
aI128
aI105
aI113
aI90
aI108
aI153
aI136
aI130
aI128
aI123
aI108
aI123
aI114
aI135
aI100
aI131
aI84
aI111
aI108
aI135
aI86
aI103
aI125
aI94
aI118
aI126
aI118
aI115
aI103
aI98
aI135
aI115
aI98
aI160
aI0
aI117
aI135
aI128
aI123
aI121
aI97
aI133
aI120
aI93
aI123
aI108
aI142
aI118
aI105
aI138
aI113
aI131
aI139
aI113
aI125
aI128
aI118
aI110
aI140
aI0
aI108
aI103
aI130
aI144
aI123
aI126
aI143
aI108
aI124
aI118
aI126
aI83
aI103
aI105
aI146
aI120
aI123
aI113
aI123
aI88
aI115
aI149
aI149
aI103
aI123
aI115
aI120
aI108
aI0
aI143
aI105
aI123
aI155
aI120
aI109
aI83
aI0
aI113
aI103
aI120
aI119
aI148
aI95
aI97
aI100
aI143
aI115
aI108
aI0
aI113
aI134
aI134
aI121
aI131
aI103
aI113
aI89
aI100
aI93
aI135
aI136
aI123
aI113
aI140
aI145
aI119
aI108
aI113
aI0
aI105
aI120
aI103
aI128
aI106
aI153
aI108
aI104
aI108
aI123
aI0
aI0
aI128
aI103
aI113
aI148
aI148
aI90
aI119
aI101
aI120
aI118
aI123
aI126
aI0
aI138
aI125
aI120
aI131
aI121
aI93
aI116
aI128
aI100
aI120
aI108
aI128
aI135
aI136
aI121
aI118
aI131
aI113
aI106
aI128
aI0
aI118
aI130
aI125
aI108
aI108
aI107
aI135
aI111
aI113
aI118
aI126
aI115
aI123
aI113
aI113
aI113
aI118
aI101
aI128
aI137
aI129
aI103
aI113
aI127
aI128
aI123
aI106
aI132
aI136
aI133
aI108
aI123
aI93
aI155
aI125
aI108
aI123
aI120
aI128
aI110
aI110
aI143
aI123
aI115
aI122
aI105
aI136
aI133
aI110
aI115
aI143
aI124
aI107
aI150
aI163
aI118
aI103
aI0
aI106
aI123
aI138
aI135
aI128
aI113
aI110
aI123
aI111
aI168
aI133
aI145
aI126
aI108
aI93
aI125
aI129
aI115
aI106
aI120
aI113
aI118
aI104
aI118
aI98
aI94
aI115
aI146
aI118
aI129
aI100
aI113
aI133
aI139
aI113
aI131
aI139
aI138
aI88
aI98
aI108
aI130
aI138
aI116
aI137
aI127
aI113
aI145
aI113
aI133
aI125
aI103
aI145
aI0
aI145
aI152
aI118
aI122
aI168
aI138
aI135
aI108
aI96
aI128
aI128
aI111
aI101
aI138
aI108
aI133
aI103
aI124
aI108
aI145
aI110
aI113
aI140
aI101
aI117
aI128
aI113
aI133
aI130
aI128
aI128
aI115
aI138
aI93
aI103
aI129
aI140
aI121
aI123
aI130
aI142
aI101
aI163
aI113
aI140
aI148
aI110
aI109
aI138
aI113
aI123
aI130
aI103
aI108
aI133
aI120
aI118
aI113
aI99
aI128
aI109
aI113
aI119
aI103
aI152
aI108
aI148
aI98
aI119
aI113
aI131
aI108
aI113
aI118
aI118
aI138
aI143
aI143
aI128
aI129
aI125
aI113
aI123
aI158
aI144
aI118
aI108
aI118
aI123
aI120
aI110
aI153
aI113
aI113
aI148
aI115
aI88
aI124
aI95
aI113
aI103
aI165
aI131
aI120
aI123
aI113
aI133
aI114
aI126
aI123
aI108
aI113
aI130
aI123
aI0
aI0
aI178
aI0
aI118
aI105
aI118
aI128
aI93
aI0
aI147
aI127
aI133
aI108
aI0
aI102
aI0
aI160
aI131
aI125
aI130
aI103
aI93
aI118
aI0
aI125
aI88
aI105
aI125
aI0
aI0
aI113
aI150
aI143
aI105
aI88
aI106
aI137
aI148
aI103
aI110
aI133
aI0
aI110
aI0
aI0
aI135
aI120
aI133
aI145
aI113
aI158
aI108
aI106
aI112
aI121
aI135
aI110
aI128
aI113
aI106
aI138
aI125
aI131
aI153
aI130
aI139
aI118
aI0
aI110
aI108
aI91
aI118
aI130
aI130
aI143
aI113
aI110
aI111
aI125
aI123
aI138
aI140
aI143
aI128
aI121
aI135
aI110
aI111
aI105
aI118
aI126
aI155
aI128
aI154
aI110
aI111
aI110
aI134
aI96
aI108
aI120
aI146
aI123
aI115
aI95
aI111
aI0
aI83
aI108
aI123
aI130
aI133
aI78
aI115
aI128
aI150
aI110
aI133
aI130
aI136
aI83
aI113
aI139
aI133
aI111
aI138
aI138
aI118
aI124
aI118
aI140
aI131
aI128
aI163
aI115
aI133
aI131
aI120
aI110
aI0
aI123
aI88
aI130
aI123
aI145
aI93
aI131
aI111
aI133
aI135
aI136
aI123
aI0
aI0
aI138
aI103
aI133
aI118
aI111
aI0
aI113
aI0
aI111
aI81
aI108
aI113
aI113
aI0
aI143
aI120
aI112
aI93
aI140
aI125
aI121
aI113
aI108
aI100
aI103
aI128
aI126
aI138
aI93
aI123
aI120
aI128
aI138
aI140
aI117
aI148
aI93
aI120
aI108
aI138
aI125
aI135
aI0
aI143
aI113
aI140
aI105
aI118
aI128
aI113
aI145
aI95
aI140
aI128
aI115
aI120
aI96
aI113
aI113
aI128
aI0
aI133
aI0
aI138
aI0
aI0
aI138
aI122
aI136
aI125
aI93
aI123
aI133
aI123
aI140
aI133
aI123
aI113
aI128
aI113
aI96
aI118
aI120
aI0
aI111
aI138
aI133
aI90
aI130
aI134
aI113
aI128
aI0
aI125
aI113
aI150
aI145
aI165
aI95
aI129
aI113
aI115
aI136
aI128
aI138
aI96
aI128
aI155
aI120
aI0
aI123
aI155
aI113
aI148
aI108
aI120
aI116
aI118
aI115
aI126
aI113
aI0
aI0
aI108
aI125
aI123
aI99
aI169
aI113
aI115
aI124
aI119
aI108
aI114
aI128
aI138
aI144
aI121
aI123
aI93
aI120
aI88
aI0
aI125
aI109
aI113
aI153
aI133
aI135
aI120
aI0
aI113
aI109
aI105
aI118
aI108
aI155
aI123
aI113
aI138
aI133
aI141
aI128
aI126
aI123
aI138
aI133
aI155
aI108
aI113
aI140
aI139
aI120
aI153
aI88
aI133
aI138
aI113
aI115
aI91
aI108
aI0
aI120
aI128
aI149
aI168
aI104
aI130
aI120
aI123
aI0
aI125
aI0
aI125
aI114
aI101
aI123
aI156
aI135
aI120
aI129
aI114
aI150
aI0
aI126
aI98
aI113
aI115
aI110
aI123
aI161
aI145
aI116
aI116
aI88
aI108
aI133
aI123
aI119
aI133
aI128
aI115
aI106
aI123
aI93
aI113
aI116
aI138
aI128
aI113
aI120
aI106
aI133
aI119
aI136
aI118
aI133
aI146
aI0
aI0
aI111
aI110
aI128
aI118
aI111
aI133
aI0
aI88
aI135
aI128
aI98
aI0
aI145
aI108
aI125
aI124
aI134
aI128
aI127
aI117
aI118
aI115
aI133
aI90
aI138
aI101
aI129
aI123
aI113
aI107
aI142
aI124
aI119
aI88
aI138
aI143
aI106
aI126
aI106
aI86
aI118
aI138
aI116
aI101
aI140
aI0
aI138
aI120
aI113
aI120
aI93
aI116
aI135
aI128
aI145
aI128
aI116
aI134
aI108
aI128
aI150
aI128
aI123
aI100
aI145
aI140
aI135
aI120
aI125
aI99
aI143
aI133
aI133
aI128
aI146
aI115
aI121
aI91
aI139
aI114
aI138
aI115
aI138
aI138
aI120
aI135
aI128
aI88
aI121
aI88
aI123
aI0
aI143
aI113
aI123
aI130
aI140
aI113
aI140
aI120
aI0
aI106
aI120
aI93
aI0
aI138
aI148
aI103
aI111
aI96
aI120
aI98
aI149
aI101
aI125
aI139
aI88
aI98
aI108
aI128
aI138
aI114
aI143
aI120
aI91
aI118
aI113
aI147
aI166
aI126
aI123
aI128
aI113
aI113
aI123
aI133
aI100
aI116
aI140
aI89
aI115
aI121
aI120
aI118
aI92
aI136
aI143
aI133
aI106
aI130
aI150
aI113
aI85
aI0
aI118
aI90
aI101
aI118
aI128
aI104
aI133
aI133
aI0
aI118
aI0
aI131
aI0
aI118
aI128
aI116
aI123
aI120
aI118
aI133
aI130
aI130
aI133
aI148
aI123
aI110
aI123
aI98
aI110
aI116
aI133
aI91
aI0
aI110
aI118
aI107
aI118
aI128
aI104
aI115
aI120
aI141
aI120
aI104
aI163
aI159
aI108
aI141
aI94
aI120
aI106
aI0
aI100
aI98
aI120
aI121
aI150
aI113
aI96
aI138
aI120
aI93
aI128
aI111
aI148
aI147
aI88
aI133
aI117
aI118
aI110
aI125
aI125
aI123
aI128
aI131
aI133
aI113
aI120
aI115
aI120
aI136
aI124
aI106
aI158
aI113
aI98
aI118
aI124
aI128
aI115
aI112
aI115
aI116
aI124
aI113
aI113
aI113
aI150
aI125
aI123
aI113
aI113
aI152
aI133
aI113
aI118
aI119
aI108
aI158
aI122
aI103
aI110
aI114
aI150
aI100
aI133
aI125
aI113
aI113
aI100
aI115
aI88
aI128
aI123
aI118
aI118
aI113
aI133
aI138
aI128
aI136
aI133
aI98
aI113
aI113
aI136
aI108
aI118
aI125
aI123
aI113
aI108
aI93
aI120
aI125
aI163
aI113
aI118
aI125
aI125
aI135
aI106
aI0
aI113
aI100
aI113
aI123
aI108
aI155
aI133
aI103
aI128
aI116
aI138
aI103
aI131
aI130
aI90
aI133
aI133
aI130
aI118
aI0
aI123
aI133
aI128
aI133
aI128
aI130
aI97
aI115
aI131
aI129
aI130
aI115
aI103
aI105
aI110
aI126
aI136
aI133
aI113
aI120
aI98
aI133
aI138
aI133
aI136
aI130
aI113
aI125
aI140
aI123
aI113
aI128
aI120
aI95
aI119
aI133
aI108
aI0
aI165
aI141
aI100
aI128
aI113
aI135
aI133
aI138
aI100
aI114
aI133
aI96
aI108
aI93
aI123
aI113
aI120
aI124
aI123
aI83
aI0
aI138
aI88
aI118
aI95
aI140
aI148
aI125
aI118
aI115
aI133
aI128
aI121
aI113
aI113
aI123
aI145
aI119
aI145
aI128
aI120
aI115
aI104
aI0
aI110
aI93
aI113
aI133
aI127
aI122
aI115
aI102
aI125
aI110
aI108
aI123
aI116
aI92
aI123
aI89
aI123
aI110
aI98
aI113
aI123
aI119
aI116
aI125
aI139
aI120
aI120
aI115
aI108
aI151
aI98
aI0
aI168
aI130
aI116
aI133
aI96
aI113
aI125
aI0
aI113
aI140
aI85
aI118
aI120
aI103
aI113
aI98
aI123
aI128
aI118
aI113
aI110
aI145
aI126
aI121
aI75
aI128
aI129
aI110
aI131
aI115
aI0
aI123
aI151
aI135
aI128
aI121
aI113
aI113
aI143
aI110
aI128
aI145
aI128
aI106
aI103
aI129
aI135
aI150
aI87
aI110
aI113
aI110
aI148
aI113
aI0
aI137
aI111
aI0
aI140
aI147
aI115
aI141
aI92
aI115
aI88
aI128
aI114
aI144
aI130
aI143
aI153
aI143
aI124
aI128
aI133
aI128
aI120
aI115
aI120
aI98
aI149
aI113
aI136
aI110
aI0
aI126
aI148
aI115
aI93
aI143
aI0
aI109
aI127
aI148
aI103
aI145
aI108
aI133
aI153
aI98
aI128
aI111
aI137
aI0
aI135
aI135
aI136
aI123
aI128
aI133
aI123
aI130
aI0
aI108
aI136
aI150
aI0
aI125
aI128
aI115
aI145
aI121
aI113
aI115
aI115
aI113
aI133
aI108
aI103
aI0
aI122
aI103
aI133
aI133
aI135
aI84
aI168
aI128
aI155
aI143
aI95
aI118
aI102
aI108
aI136
aI121
aI123
aI103
aI143
aI150
aI150
aI93
aI133
aI160
aI128
aI113
aI113
aI144
aI113
aI108
aI143
aI116
aI136
aI123
aI134
aI133
aI143
aI111
aI135
aI123
aI146
aI105
aI111
aI0
aI0
aI0
aI139
aI134
aI150
aI143
aI0
aI120
aI113
aI130
aI133
aI128
aI128
aI133
aI133
aI134
aI133
aI123
aI0
aI123
aI138
aI111
aI103
aI98
aI120
aI113
aI0
aI138
aI118
aI125
aI136
aI96
aI113
aI136
aI83
aI88
aI131
aI111
aI135
aI120
aI148
aI118
aI88
aI119
aI0
aI154
aI133
aI136
aI168
aI83
aI108
aI128
aI154
aI118
aI165
aI103
aI126
aI145
aI113
aI100
aI115
aI125
aI131
aI108
aI115
aI115
aI108
aI143
aI123
aI136
aI113
aI95
aI118
aI110
aI123
aI160
aI135
aI122
aI130
aI103
aI140
aI110
aI121
aI138
aI143
aI124
aI125
aI108
aI123
aI118
aI124
aI134
aI128
aI101
aI94
aI110
aI113
aI115
aI123
aI116
aI110
aI95
aI113
aI98
aI125
aI103
aI144
aI120
aI111
aI108
aI138
aI125
aI103
aI120
aI138
aI103
aI135
aI123
aI130
aI148
aI118
aI103
aI120
aI120
aI123
aI106
aI95
aI143
aI118
aI113
aI0
aI133
aI123
aI120
aI118
aI153
aI133
aI100
aI130
aI98
aI149
aI113
aI0
aI110
aI123
aI113
aI108
aI118
aI109
aI133
aI103
aI131
aI125
aI146
aI113
aI132
aI135
aI116
aI130
aI123
aI133
aI119
aI113
aI138
aI141
aI81
aI0
aI118
aI121
aI113
aI135
aI138
aI131
aI141
aI0
aI140
aI120
aI138
aI120
aI118
aI141
aI0
aI136
aI108
aI0
aI100
aI140
aI128
aI125
aI145
aI120
aI108
aI138
aI151
aI116
aI141
aI108
aI123
aI118
aI118
aI0
aI133
aI128
aI108
aI138
aI130
aI135
aI0
aI93
aI155
aI110
aI109
aI127
aI88
aI116
aI90
aI130
aI118
aI118
aI93
aI135
aI0
aI107
aI128
aI123
aI93
aI130
aI118
aI123
aI103
aI125
aI169
aI108
aI118
aI108
aI105
aI117
aI140
aI145
aI0
aI146
aI93
aI128
aI106
aI132
aI133
aI128
aI130
aI118
aI137
aI130
aI118
aI145
aI98
aI0
aI148
aI106
aI124
aI119
aI113
aI0
aI101
aI93
aI123
aI100
aI118
aI111
aI167
aI120
aI100
aI105
aI113
aI113
aI115
aI124
aI102
aI120
aI138
aI113
aI138
aI123
aI126
aI145
aI141
aI113
aI135
aI95
aI125
aI123
aI120
aI115
aI112
aI125
aI94
aI103
aI100
aI123
aI103
aI138
aI108
aI123
aI106
aI113
aI103
aI91
aI138
aI128
aI0
aI113
aI111
aI114
aI125
aI128
aI143
aI145
aI113
aI124
aI140
aI128
aI120
aI118
aI143
aI0
aI135
aI111
aI148
aI128
aI105
aI113
aI111
aI130
aI108
aI96
aI120
aI135
aI153
aI113
aI140
aI98
aI133
aI106
aI93
aI116
aI113
aI118
aI118
aI135
aI123
aI93
aI129
aI129
aI118
aI128
aI120
aI123
aI128
aI113
aI135
aI118
aI113
aI138
aI84
aI113
aI110
aI115
aI130
aI98
aI142
aI88
aI92
aI93
aI125
aI125
aI123
aI140
aI106
aI130
aI131
aI88
aI128
aI0
aI151
aI148
aI0
aI140
aI108
aI141
aI123
aI131
aI125
aI98
aI108
aI118
aI129
aI119
aI138
aI120
aI133
aI98
aI113
aI118
aI114
aI165
aI133
aI118
aI95
aI131
aI133
aI106
aI110
aI131
aI143
aI103
aI113
aI108
aI133
aI125
aI118
aI101
aI123
aI110
aI103
aI116
aI113
aI93
aI106
aI115
aI155
aI125
aI118
aI103
aI120
aI108
aI128
aI0
aI125
aI115
aI123
aI122
aI123
aI133
aI113
aI113
aI108
aI125
aI0
aI130
aI128
aI103
aI118
aI128
aI128
aI128
aI103
aI91
aI109
aI0
aI144
aI108
aI115
aI108
aI115
aI133
aI0
aI122
aI108
aI133
aI113
aI90
aI141
aI135
aI143
aI98
aI113
aI130
aI113
aI111
aI113
aI0
aI93
aI133
aI115
aI156
aI108
aI121
aI93
aI133
aI88
aI113
aI0
aI108
aI103
aI113
aI124
aI110
aI118
aI128
aI150
aI113
aI103
aI133
aI139
aI103
aI93
aI143
aI123
aI113
aI118
aI129
aI133
aI113
aI139
aI103
aI110
aI93
aI113
aI114
aI107
aI128
aI107
aI88
aI120
aI103
aI103
aI0
aI93
aI118
aI93
aI118
aI125
aI171
aI121
aI0
aI108
aI114
aI113
aI131
aI130
aI97
aI122
aI130
aI111
aI120
aI135
aI143
aI113
aI134
aI122
aI118
aI123
aI138
aI120
aI113
aI128
aI120
aI0
aI143
aI138
aI138
aI100
aI123
aI108
aI130
aI130
aI123
aI111
aI135
aI105
aI122
aI118
aI141
aI111
aI133
aI140
aI135
aI121
aI120
aI136
aI120
aI132
aI108
aI134
aI130
aI128
aI133
aI113
aI108
aI0
aI128
aI158
aI110
aI103
aI141
aI108
aI139
aI148
aI140
aI138
aI145
aI133
aI103
aI113
aI136
aI89
aI128
aI110
aI146
aI108
aI0
aI135
aI118
aI125
aI130
aI113
aI123
aI123
aI133
aI102
aI136
aI133
aI155
aI123
aI113
aI144
aI0
aI103
aI143
aI113
aI95
aI103
aI131
aI138
aI101
aI133
aI151
aI115
aI136
aI143
aI137
aI113
aI110
aI134
aI138
aI113
aI133
aI125
aI138
aI126
aI0
aI113
aI128
aI128
aI111
aI120
aI143
aI135
aI120
aI138
aI128
aI133
aI0
aI153
aI98
aI0
aI131
aI0
aI160
aI91
aI120
aI139
aI0
aI115
aI132
aI107
aI104
aI123
aI125
aI138
aI113
aI158
aI89
aI128
aI113
aI130
aI93
aI88
aI128
aI111
aI105
aI105
aI103
aI133
aI123
aI93
aI123
aI130
aI110
aI140
aI133
aI145
aI126
aI108
aI107
aI123
aI120
aI134
aI108
aI133
aI92
aI100
aI159
aI108
aI138
aI138
aI92
aI138
aI132
aI113
aI0
aI107
aI130
aI106
aI88
aI103
aI153
aI101
aI111
aI133
aI128
aI120
aI93
aI145
aI138
aI140
aI120
aI118
aI146
aI138
aI125
aI132
aI108
aI0
aI133
aI129
aI91
aI101
aI113
aI144
aI123
aI113
aI108
aI143
aI180
aI125
aI89
aI0
aI123
aI138
aI148
aI93
aI138
aI101
aI93
aI105
aI147
aI93
aI120
aI140
aI113
aI129
aI113
aI118
aI128
aI103
aI128
aI120
aI125
aI130
aI113
aI103
aI108
aI140
aI150
aI130
aI138
aI113
aI113
aI87
aI118
aI138
aI0
aI138
aI118
aI120
aI129
aI123
aI116
aI138
aI0
aI113
aI123
aI92
aI145
aI120
aI140
aI88
aI0
aI115
aI89
aI109
aI110
aI0
aI118
aI120
aI88
aI125
aI139
aI150
aI148
aI123
aI103
aI133
aI138
aI138
aI93
aI123
aI88
aI134
aI138
aI108
aI138
aI118
aI100
aI166
aI115
aI127
aI123
aI152
aI113
aI93
aI0
aI93
aI133
aI103
aI123
aI96
aI123
aI139
aI108
aI0
aI118
aI129
aI101
aI103
aI115
aI103
aI113
aI123
aI103
aI146
aI0
aI145
aI135
aI95
aI113
aI0
aI135
aI106
aI118
aI128
aI0
aI108
aI118
aI120
aI128
aI110
aI133
aI116
aI123
aI145
aI138
aI128
aI130
aI133
aI113
aI144
aI128
aI108
aI109
aI118
aI103
aI0
aI115
aI133
aI83
aI0
aI0
aI143
aI108
aI108
aI85
aI118
aI113
aI113
aI133
aI0
aI130
aI141
aI125
aI108
aI145
aI0
aI113
aI125
aI113
aI118
aI131
aI131
aI118
aI139
aI139
aI108
aI102
aI124
aI121
aI123
aI103
aI128
aI135
aI125
aI153
aI133
aI0
aI120
aI88
aI123
aI108
aI133
aI111
aI108
aI130
aI133
aI108
aI133
aI100
aI133
aI128
aI139
aI133
aI105
aI113
aI124
aI133
aI103
aI115
aI150
aI133
aI128
aI116
aI107
aI155
aI125
aI110
aI156
aI133
aI131
aI100
aI95
aI143
aI123
aI113
aI91
aI118
aI117
aI150
aI107
aI118
aI130
aI110
aI93
aI132
aI126
aI148
aI100
aI101
aI105
aI128
aI133
aI113
aI93
aI125
aI130
aI93
aI120
aI144
aI0
aI148
aI110
aI121
aI89
aI120
aI90
aI116
aI123
aI103
aI106
aI98
aI131
aI123
aI98
aI114
aI133
aI128
aI130
aI132
aI135
aI118
aI131
aI142
aI110
aI0
aI0
aI129
aI121
aI113
aI128
aI150
aI113
aI138
aI141
aI110
aI113
aI120
aI115
aI120
aI115
aI125
aI134
aI140
aI110
aI113
aI100
aI93
aI126
aI101
aI103
aI118
aI108
aI133
aI103
aI111
aI128
aI158
aI123
aI113
aI124
aI138
aI121
aI138
aI165
aI0
aI140
aI108
aI0
aI145
aI108
aI103
aI113
aI139
aI94
aI0
aI130
aI152
aI123
aI138
aI123
aI140
aI112
aI118
aI98
aI105
aI128
aI128
aI108
aI118
aI117
aI128
aI128
aI140
aI125
aI129
aI132
aI128
aI126
aI115
aI128
aI153
aI113
aI121
aI138
aI123
aI113
aI128
aI108
aI143
aI128
aI98
aI139
aI115
aI141
aI101
aI103
aI0
aI125
aI103
aI136
aI115
aI160
aI123
aI151
aI118
aI138
aI0
aI0
aI128
aI128
aI110
aI133
aI112
aI155
aI108
aI134
aI123
aI150
aI100
aI113
aI113
aI128
aI128
aI150
aI135
aI133
aI120
aI148
aI125
aI108
aI116
aI121
aI123
aI120
aI93
aI141
aI106
aI0
aI116
aI103
aI123
aI123
aI112
aI119
aI145
aI118
aI115
aI144
aI93
aI0
aI120
aI93
aI134
aI131
aI140
aI137
aI108
aI136
aI133
aI118
aI0
aI123
aI100
aI93
aI110
aI138
aI113
aI113
aI108
aI158
aI108
aI113
aI138
aI130
aI125
aI109
aI105
aI130
aI113
aI111
aI128
aI130
aI128
aI118
aI153
aI133
aI100
aI104
aI125
aI118
aI143
aI90
aI109
aI108
aI115
aI103
aI0
aI118
aI130
aI95
aI106
aI145
aI130
aI120
aI101
aI121
aI113
aI120
aI93
aI128
aI103
aI128
aI108
aI101
aI133
aI100
aI140
aI138
aI116
aI121
aI128
aI128
aI98
aI128
aI90
aI125
aI113
aI136
aI120
aI92
aI150
aI146
aI130
aI105
aI116
aI135
aI148
aI118
aI131
aI145
aI165
aI95
aI133
aI109
aI112
aI149
aI100
aI133
aI159
aI113
aI110
aI118
aI110
aI143
aI108
aI148
aI111
aI148
aI150
aI123
aI108
aI113
aI140
aI120
aI121
aI113
aI120
aI123
aI114
aI119
aI111
aI96
aI128
aI115
aI132
aI130
aI115
aI122
aI151
aI128
aI108
aI118
aI113
aI120
aI169
aI118
aI143
aI148
aI118
aI130
aI122
aI152
aI93
aI113
aI140
aI116
aI133
aI103
aI145
aI108
aI94
aI118
aI113
aI109
aI135
aI113
aI113
aI154
aI131
aI172
aI120
aI148
aI119
aI105
aI100
aI145
aI91
aI108
aI138
aI120
aI93
aI121
aI133
aI123
aI128
aI132
aI123
aI103
aI130
aI100
aI94
aI138
aI115
aI128
aI100
aI113
aI114
aI85
aI108
aI100
aI132
aI100
aI118
aI128
aI95
aI125
aI120
aI133
aI111
aI113
aI128
aI143
aI123
aI138
aI122
aI123
aI108
aI138
aI113
aI110
aI113
aI126
aI133
aI139
aI111
aI90
aI105
aI116
aI116
aI103
aI105
aI106
aI116
aI113
aI156
aI108
aI95
aI146
aI117
aI147
aI108
aI121
aI90
aI119
aI110
aI114
aI113
aI118
aI115
aI103
aI160
aI98
aI130
aI111
aI140
aI113
aI113
aI93
aI128
aI141
aI130
aI103
aI83
aI128
aI118
aI140
aI135
aI90
aI113
aI133
aI136
aI120
aI90
aI144
aI103
aI108
aI119
aI133
aI118
aI125
aI95
aI113
aI145
aI123
aI110
aI105
aI106
aI115
aI108
aI128
aI119
aI113
aI155
aI126
aI113
aI113
aI0
aI143
aI105
aI88
aI115
aI103
aI105
aI138
aI108
aI110
aI131
aI108
aI133
aI116
aI98
aI127
aI141
aI100
aI133
aI123
aI119
aI108
aI149
aI129
aI135
aI125
aI108
aI133
aI141
aI130
aI118
aI133
aI128
aI103
aI115
aI113
aI120
aI141
aI82
aI128
aI130
aI120
aI100
aI103
aI113
aI133
aI138
aI119
aI151
aI100
aI128
aI109
aI114
aI125
aI119
aI118
aI113
aI108
aI98
aI83
aI130
aI143
aI115
aI113
aI104
aI108
aI111
aI108
aI140
aI93
aI0
aI92
aI120
aI143
aI138
aI0
aI93
aI0
aI130
aI126
aI148
aI136
aI138
aI128
aI93
aI120
aI123
aI98
aI141
aI114
aI125
aI143
aI0
aI108
aI145
aI113
aI145
aI108
aI115
aI115
aI109
aI128
aI108
aI98
aI113
aI120
aI130
aI152
aI140
aI113
aI123
aI138
aI108
aI118
aI128
aI109
aI108
aI130
aI138
aI142
aI118
aI118
aI135
aI123
aI0
aI130
aI110
aI125
aI115
aI136
aI108
aI120
aI0
aI0
aI140
aI123
aI123
aI130
aI126
aI160
aI119
aI123
aI120
aI108
aI145
aI123
aI123
aI0
aI117
aI103
aI123
aI153
aI105
aI131
aI113
aI0
aI100
aI135
aI114
aI128
aI113
aI103
aI93
aI123
aI153
aI101
aI133
aI93
aI135
aI105
aI105
aI108
aI0
aI104
aI150
aI111
aI112
aI113
aI133
aI114
aI111
aI124
aI155
aI106
aI140
aI145
aI126
aI113
aI106
aI145
aI153
aI131
aI103
aI143
aI133
aI115
aI128
aI128
aI115
aI108
aI128
aI111
aI93
aI0
aI120
aI133
aI136
aI118
aI123
aI0
aI0
aI130
aI119
aI108
aI131
aI113
aI113
aI143
aI138
aI93
aI118
aI133
aI115
aI148
aI113
aI145
aI133
aI113
aI138
aI0
aI150
aI111
aI120
aI140
aI125
aI113
aI0
aI93
aI105
aI108
aI128
aI145
aI133
aI133
aI169
aI93
aI141
aI120
aI120
aI132
aI124
aI156
aI113
aI88
aI120
aI120
aI140
aI120
aI130
aI118
aI108
aI128
aI115
aI108
aI128
aI138
aI123
aI135
aI119
aI132
aI88
aI113
aI120
aI93
aI133
aI120
aI113
aI0
aI123
aI134
aI113
aI128
aI123
aI118
aI133
aI138
aI128
aI100
aI123
aI90
aI103
aI150
aI128
aI135
aI136
aI120
aI111
aI125
aI93
aI120
aI111
aI116
aI125
aI130
aI108
aI113
aI145
aI111
aI113
aI138
aI113
aI123
aI103
aI133
aI103
aI128
aI138
aI123
aI125
aI124
aI114
aI120
aI110
aI113
aI148
aI128
aI135
aI108
aI141
aI106
aI118
aI113
aI141
aI123
aI138
aI128
aI128
aI113
aI120
aI113
aI119
aI143
aI145
aI115
aI144
aI126
aI113
aI103
aI123
aI113
aI127
aI103
aI128
aI0
aI108
aI0
aI124
aI130
aI113
aI132
aI108
aI113
aI145
aI0
aI123
aI108
aI100
aI0
aI93
aI121
aI108
aI108
aI130
aI133
aI132
aI108
aI108
aI110
aI113
aI110
aI103
aI103
aI123
aI120
aI128
aI88
aI113
aI133
aI132
aI113
aI115
aI110
aI123
aI103
aI118
aI103
aI130
aI125
aI123
aI138
aI119
aI133
aI105
aI113
aI133
aI0
aI103
aI108
aI128
aI114
aI135
aI138
aI106
aI113
aI131
aI118
aI140
aI105
aI113
aI123
aI125
aI0
aI127
aI138
aI161
aI114
aI115
aI120
aI123
aI110
aI100
aI96
aI124
aI115
aI93
aI128
aI115
aI118
aI123
aI122
aI140
aI0
aI114
aI0
aI138
aI0
aI133
aI0
aI100
aI148
aI138
aI118
aI126
aI145
aI120
aI113
aI151
aI149
aI119
aI114
aI113
aI0
aI120
aI135
aI136
aI106
aI140
aI102
aI153
aI108
aI132
aI93
aI139
aI125
aI113
aI124
aI126
aI131
aI105
aI104
aI116
aI105
aI98
aI108
aI113
aI108
aI150
aI116
aI96
aI139
aI105
aI140
aI138
aI111
aI123
aI0
aI113
aI133
aI109
aI117
aI96
aI132
aI133
aI158
aI130
aI130
aI113
aI125
aI123
aI153
aI148
aI110
aI121
aI118
aI138
aI123
aI98
aI103
aI93
aI143
aI115
aI114
aI99
aI123
aI112
aI118
aI108
aI123
aI133
aI121
aI108
aI118
aI115
aI140
aI181
aaS'1-Qtable_TL_NE-Simple(curr_time_h_SC_norm_Light)-Act3'
p552
aI4185
a.