(lp0
(lp1
I10
aI3
aI0
aI0
aI0
aI4
aI10
aI3
aI0
aI0
aI0
aI4
aI10
aI3
aI0
aI0
aI0
aI4
aI10
aI3
aI0
aI0
aI0
aI4
aI10
aI3
aI0
aI0
aI0
aI4
aI10
aI3
aI0
aI0
aI0
aI4
aI10
aI3
aI0
aI0
aI0
aI4
aa(lp2
cnumpy.core.multiarray
scalar
p3
(cnumpy
dtype
p4
(S'i8'
p5
I0
I1
tp6
Rp7
(I3
S'<'
p8
NNNI-1
I-1
I0
tp9
bS'\x01\x00\x00\x00\x00\x00\x00\x00'
p10
tp11
Rp12
ag3
(g7
S'\x02\x00\x00\x00\x00\x00\x00\x00'
p13
tp14
Rp15
ag3
(g7
S'\x00\x00\x00\x00\x00\x00\x00\x00'
p16
tp17
Rp18
ag3
(g7
S'\x02\x00\x00\x00\x00\x00\x00\x00'
p19
tp20
Rp21
ag3
(g7
S'\x01\x00\x00\x00\x00\x00\x00\x00'
p22
tp23
Rp24
ag3
(g7
S'\x02\x00\x00\x00\x00\x00\x00\x00'
p25
tp26
Rp27
ag3
(g7
S'\x01\x00\x00\x00\x00\x00\x00\x00'
p28
tp29
Rp30
ag3
(g7
S'\x02\x00\x00\x00\x00\x00\x00\x00'
p31
tp32
Rp33
ag3
(g7
S'\x00\x00\x00\x00\x00\x00\x00\x00'
p34
tp35
Rp36
ag3
(g7
S'\x02\x00\x00\x00\x00\x00\x00\x00'
p37
tp38
Rp39
ag3
(g7
S'\x01\x00\x00\x00\x00\x00\x00\x00'
p40
tp41
Rp42
ag3
(g7
S'\x02\x00\x00\x00\x00\x00\x00\x00'
p43
tp44
Rp45
ag3
(g7
S'\x01\x00\x00\x00\x00\x00\x00\x00'
p46
tp47
Rp48
ag3
(g7
S'\x02\x00\x00\x00\x00\x00\x00\x00'
p49
tp50
Rp51
ag3
(g7
S'\x00\x00\x00\x00\x00\x00\x00\x00'
p52
tp53
Rp54
ag3
(g7
S'\x02\x00\x00\x00\x00\x00\x00\x00'
p55
tp56
Rp57
ag3
(g7
S'\x01\x00\x00\x00\x00\x00\x00\x00'
p58
tp59
Rp60
ag3
(g7
S'\x02\x00\x00\x00\x00\x00\x00\x00'
p61
tp62
Rp63
ag3
(g7
S'\x01\x00\x00\x00\x00\x00\x00\x00'
p64
tp65
Rp66
ag3
(g7
S'\x02\x00\x00\x00\x00\x00\x00\x00'
p67
tp68
Rp69
ag3
(g7
S'\x00\x00\x00\x00\x00\x00\x00\x00'
p70
tp71
Rp72
ag3
(g7
S'\x01\x00\x00\x00\x00\x00\x00\x00'
p73
tp74
Rp75
ag3
(g7
S'\x02\x00\x00\x00\x00\x00\x00\x00'
p76
tp77
Rp78
ag3
(g7
S'\x02\x00\x00\x00\x00\x00\x00\x00'
p79
tp80
Rp81
ag3
(g7
S'\x01\x00\x00\x00\x00\x00\x00\x00'
p82
tp83
Rp84
ag3
(g7
S'\x02\x00\x00\x00\x00\x00\x00\x00'
p85
tp86
Rp87
ag3
(g7
S'\x00\x00\x00\x00\x00\x00\x00\x00'
p88
tp89
Rp90
ag3
(g7
S'\x00\x00\x00\x00\x00\x00\x00\x00'
p91
tp92
Rp93
ag3
(g7
S'\x01\x00\x00\x00\x00\x00\x00\x00'
p94
tp95
Rp96
ag3
(g7
S'\x02\x00\x00\x00\x00\x00\x00\x00'
p97
tp98
Rp99
ag3
(g7
S'\x01\x00\x00\x00\x00\x00\x00\x00'
p100
tp101
Rp102
ag3
(g7
S'\x02\x00\x00\x00\x00\x00\x00\x00'
p103
tp104
Rp105
ag3
(g7
S'\x01\x00\x00\x00\x00\x00\x00\x00'
p106
tp107
Rp108
ag3
(g7
S'\x00\x00\x00\x00\x00\x00\x00\x00'
p109
tp110
Rp111
ag3
(g7
S'\x01\x00\x00\x00\x00\x00\x00\x00'
p112
tp113
Rp114
ag3
(g7
S'\x02\x00\x00\x00\x00\x00\x00\x00'
p115
tp116
Rp117
ag3
(g7
S'\x01\x00\x00\x00\x00\x00\x00\x00'
p118
tp119
Rp120
ag3
(g7
S'\x02\x00\x00\x00\x00\x00\x00\x00'
p121
tp122
Rp123
ag3
(g7
S'\x00\x00\x00\x00\x00\x00\x00\x00'
p124
tp125
Rp126
ag3
(g7
S'\x02\x00\x00\x00\x00\x00\x00\x00'
p127
tp128
Rp129
ag3
(g7
S'\x01\x00\x00\x00\x00\x00\x00\x00'
p130
tp131
Rp132
ag3
(g7
S'\x02\x00\x00\x00\x00\x00\x00\x00'
p133
tp134
Rp135
aa(lp136
I4
aI4
aI3
aI4
aI4
aI4
aI4
aI4
aI3
aI4
aI4
aI4
aI4
aI4
aI3
aI4
aI4
aI4
aI4
aI4
aI3
aI3
aI4
aI4
aI4
aI4
aI3
aI2
aI2
aI3
aI3
aI4
aI4
aI3
aI3
aI4
aI4
aI4
aI3
aI4
aI4
aI4
aa(lp137
I1
aI2
aI3
aI4
aI5
aI6
aI7
aI8
aI9
aI10
aI11
aI12
aI13
aI14
aI15
aI16
aI17
aI18
aI19
aI20
aI21
aI22
aI23
aI24
aI25
aI26
aI27
aI28
aI29
aI30
aI31
aI32
aI33
aI34
aI35
aI36
aI37
aI38
aI39
aI40
aI41
aI42
aaI153
a(lp138
cdatetime
datetime
p139
(S'\x07\xe2\x01\x01\x0c\x00\x00\x00\x00\x00'
p140
tp141
Rp142
ag139
(S'\x07\xe2\x01\x01\x10\x00\x00\x00\x00\x00'
p143
tp144
Rp145
ag139
(S'\x07\xe2\x01\x01\x14\x00\x00\x00\x00\x00'
p146
tp147
Rp148
ag139
(S'\x07\xe2\x01\x02\x00\x00\x00\x00\x00\x00'
p149
tp150
Rp151
ag139
(S'\x07\xe2\x01\x02\x04\x00\x00\x00\x00\x00'
p152
tp153
Rp154
ag139
(S'\x07\xe2\x01\x02\x08\x00\x00\x00\x00\x00'
p155
tp156
Rp157
ag139
(S'\x07\xe2\x01\x02\x0c\x00\x00\x00\x00\x00'
p158
tp159
Rp160
ag139
(S'\x07\xe2\x01\x02\x10\x00\x00\x00\x00\x00'
p161
tp162
Rp163
ag139
(S'\x07\xe2\x01\x02\x14\x00\x00\x00\x00\x00'
p164
tp165
Rp166
ag139
(S'\x07\xe2\x01\x03\x00\x00\x00\x00\x00\x00'
p167
tp168
Rp169
ag139
(S'\x07\xe2\x01\x03\x04\x00\x00\x00\x00\x00'
p170
tp171
Rp172
ag139
(S'\x07\xe2\x01\x03\x08\x00\x00\x00\x00\x00'
p173
tp174
Rp175
ag139
(S'\x07\xe2\x01\x03\x0c\x00\x00\x00\x00\x00'
p176
tp177
Rp178
ag139
(S'\x07\xe2\x01\x03\x10\x00\x00\x00\x00\x00'
p179
tp180
Rp181
ag139
(S'\x07\xe2\x01\x03\x14\x00\x00\x00\x00\x00'
p182
tp183
Rp184
ag139
(S'\x07\xe2\x01\x04\x00\x00\x00\x00\x00\x00'
p185
tp186
Rp187
ag139
(S'\x07\xe2\x01\x04\x04\x00\x00\x00\x00\x00'
p188
tp189
Rp190
ag139
(S'\x07\xe2\x01\x04\x08\x00\x00\x00\x00\x00'
p191
tp192
Rp193
ag139
(S'\x07\xe2\x01\x04\x0c\x00\x00\x00\x00\x00'
p194
tp195
Rp196
ag139
(S'\x07\xe2\x01\x04\x10\x00\x00\x00\x00\x00'
p197
tp198
Rp199
ag139
(S'\x07\xe2\x01\x04\x14\x00\x00\x00\x00\x00'
p200
tp201
Rp202
ag139
(S'\x07\xe2\x01\x05\x00\x00\x00\x00\x00\x00'
p203
tp204
Rp205
ag139
(S'\x07\xe2\x01\x05\x04\x00\x00\x00\x00\x00'
p206
tp207
Rp208
ag139
(S'\x07\xe2\x01\x05\x08\x00\x00\x00\x00\x00'
p209
tp210
Rp211
ag139
(S'\x07\xe2\x01\x05\x0c\x00\x00\x00\x00\x00'
p212
tp213
Rp214
ag139
(S'\x07\xe2\x01\x05\x10\x00\x00\x00\x00\x00'
p215
tp216
Rp217
ag139
(S'\x07\xe2\x01\x05\x14\x00\x00\x00\x00\x00'
p218
tp219
Rp220
ag139
(S'\x07\xe2\x01\x06\x00\x00\x00\x00\x00\x00'
p221
tp222
Rp223
ag139
(S'\x07\xe2\x01\x06\x04\x00\x00\x00\x00\x00'
p224
tp225
Rp226
ag139
(S'\x07\xe2\x01\x06\x08\x00\x00\x00\x00\x00'
p227
tp228
Rp229
ag139
(S'\x07\xe2\x01\x06\x0c\x00\x00\x00\x00\x00'
p230
tp231
Rp232
ag139
(S'\x07\xe2\x01\x06\x10\x00\x00\x00\x00\x00'
p233
tp234
Rp235
ag139
(S'\x07\xe2\x01\x06\x14\x00\x00\x00\x00\x00'
p236
tp237
Rp238
ag139
(S'\x07\xe2\x01\x07\x00\x00\x00\x00\x00\x00'
p239
tp240
Rp241
ag139
(S'\x07\xe2\x01\x07\x04\x00\x00\x00\x00\x00'
p242
tp243
Rp244
ag139
(S'\x07\xe2\x01\x07\x08\x00\x00\x00\x00\x00'
p245
tp246
Rp247
ag139
(S'\x07\xe2\x01\x07\x0c\x00\x00\x00\x00\x00'
p248
tp249
Rp250
ag139
(S'\x07\xe2\x01\x07\x10\x00\x00\x00\x00\x00'
p251
tp252
Rp253
ag139
(S'\x07\xe2\x01\x07\x14\x00\x00\x00\x00\x00'
p254
tp255
Rp256
ag139
(S'\x07\xe2\x01\x08\x00\x00\x00\x00\x00\x00'
p257
tp258
Rp259
ag139
(S'\x07\xe2\x01\x08\x04\x00\x00\x00\x00\x00'
p260
tp261
Rp262
ag139
(S'\x07\xe2\x01\x08\x08\x00\x00\x00\x00\x00'
p263
tp264
Rp265
aa(lp266
I8
aI4
aI4
aI3
aI4
aI4
aI4
aI4
aI4
aI3
aI4
aI4
aI4
aI4
aI4
aI3
aI4
aI4
aI4
aI4
aI4
aI3
aI3
aI4
aI4
aI4
aI4
aI3
aI2
aI2
aI3
aI3
aI4
aI4
aI3
aI3
aI4
aI4
aI4
aI3
aI4
aI4
aa(lp267
g3
(g4
(S'f8'
p268
I0
I1
tp269
Rp270
(I3
S'<'
p271
NNNI-1
I-1
I0
tp272
bS'%\xc3\xc8\xfe\xf8\xb7\x0b@'
p273
tp274
Rp275
ag3
(g270
S'\xfc\x88G@\xeb\x99\x12@'
p276
tp277
Rp278
ag3
(g270
S'\x8b\xd6\xab$\x0c\xbf\x13@'
p279
tp280
Rp281
ag3
(g270
S'\xf5\xff\x8f\xc2\x83\xe8\x10@'
p282
tp283
Rp284
ag3
(g270
S'\x90\xcc\x17\xc8n\x90\x0c@'
p285
tp286
Rp287
ag3
(g270
S'h>e\x07\xa9\xbc\x07@'
p288
tp289
Rp290
ag3
(g270
S'J\xf3\t\t\x92W\x0c@'
p291
tp292
Rp293
ag3
(g270
S'-?\xea6\xe9\xe2\x12@'
p294
tp295
Rp296
ag3
(g270
S'\xff\x94\xcd\xd7\xa7\x02\x14@'
p297
tp298
Rp299
ag3
(g270
S"\xfa\x92\xb0\xd2G'\x11@"
p300
tp301
Rp302
ag3
(g270
S'\xa5\xcf\xfe8@\x04\r@'
p303
tp304
Rp305
ag3
(g270
S'j7\x1b\xfe\xba&\x08@'
p306
tp307
Rp308
ag3
(g270
S'\x8c\xf1\x87\xea\xd9\xb7\x0c@'
p309
tp310
Rp311
ag3
(g270
S'\xf7\x15\xca-\xfb\x0e\x13@'
p312
tp313
Rp314
ag3
(g270
S'\xaa\x89\xce\xb0~+\x14@'
p315
tp316
Rp317
ag3
(g270
S'\x9b\x8f\xb4\xd15M\x11@'
p318
tp319
Rp320
ag3
(g270
S'\xd0\x98\x05\x1cFJ\r@'
p321
tp322
Rp323
ag3
(g270
S'fK\x90\x8e\xe5f\x08@'
p324
tp325
Rp326
ag3
(g270
S'\xe0[\x85\xdf"\xf2\x0c@'
p327
tp328
Rp329
ag3
(g270
S'\xe3\x86\xea1\xac)\x13@'
p330
tp331
Rp332
ag3
(g270
S'\xa9\\x\x92<D\x14@'
p333
tp334
Rp335
ag3
(g270
S'\xc7\xf6\xc4\xe01d\x11@'
p336
tp337
Rp338
ag3
(g270
S'+t\xfe\xf0\xb7t\r@'
p339
tp340
Rp341
ag3
(g270
S'V\xf8\xdc\xf9\xcd\x8d\x08@'
p342
tp343
Rp344
ag3
(g270
S'4\xf2\x8b\x1d~\x15\r@'
p345
tp346
Rp347
ag3
(g270
S'-\t7d\xde9\x13@'
p348
tp349
Rp350
ag3
(g270
S'\x14\x81\xa9\x8f@S\x14@'
p351
tp352
Rp353
ag3
(g270
S'W\x8dGe%r\x11@'
p354
tp355
Rp356
ag3
(g270
S'\x1a{\xe5p|\x8e\r@'
p357
tp358
Rp359
ag3
(g270
S'Mm\xf1\rn\xa5\x08@'
p360
tp361
Rp362
ag3
(g270
S'I\xea\x07\x81\xf7*\r@'
p363
tp364
Rp365
ag3
(g270
S'\x0f\xdc\xb2\x13\xb5C\x13@'
p366
tp367
Rp368
ag3
(g270
S'\xd5\xc9b\xe8_\\\x14@'
p369
tp370
Rp371
ag3
(g270
S'\xbb\xf3&f\x9fz\x11@'
p372
tp373
Rp374
ag3
(g270
S'\\\x81\x1f\xcc$\x9e\r@'
p375
tp376
Rp377
ag3
(g270
S'2\xd8\x88\x9e\xc9\xb3\x08@'
p378
tp379
Rp380
ag3
(g270
S'c+\x9f\xe7\x048\r@'
p381
tp382
Rp383
ag3
(g270
S'[\xe9\xc7"\xb0I\x13@'
p384
tp385
Rp386
ag3
(g270
S'\x90\xcf\xa2\x9b\xeba\x14@'
p387
tp388
Rp389
ag3
(g270
S'\x0c\x91\x9f\xa7\xc6\x7f\x11@'
p390
tp391
Rp392
ag3
(g270
S'j\xf6\xcb\xd5\xa9\xa7\r@'
p393
tp394
Rp395
ag3
(g270
S'$\xb9\xc6}\x84\xbc\x08@'
p396
tp397
Rp398
aa(lp399
I4
aI8
aI8
aI6
aI4
aI3
aI4
aI8
aI9
aI6
aI4
aI3
aI4
aI8
aI9
aI7
aI5
aI3
aI4
aI8
aI9
aI7
aI5
aI3
aI5
aI8
aI9
aI7
aI5
aI3
aI5
aI8
aI9
aI7
aI5
aI3
aI5
aI8
aI9
aI7
aI5
aI3
aaF364.2857142857143
a(lp400
I0
aI1
aI0
aI0
aI0
aI1
aI1
aI1
aI0
aI0
aI0
aI1
aI1
aI1
aI0
aI0
aI0
aI1
aI1
aI1
aI0
aI0
aI0
aI1
aI1
aI1
aI0
aI0
aI0
aI1
aI1
aI1
aI0
aI0
aI0
aI1
aI1
aI1
aI0
aI0
aI0
aI1
aa(lp401
F1.0
aF0.3
aF0.0
aF0.0
aF0.0
aF0.4
aF1.0
aF0.3
aF0.0
aF0.0
aF0.0
aF0.4
aF1.0
aF0.3
aF0.0
aF0.0
aF0.0
aF0.4
aF1.0
aF0.3
aF0.0
aF0.0
aF0.0
aF0.4
aF1.0
aF0.3
aF0.0
aF0.0
aF0.0
aF0.4
aF1.0
aF0.3
aF0.0
aF0.0
aF0.0
aF0.4
aF1.0
aF0.3
aF0.0
aF0.0
aF0.0
aF0.4
aa(lp402
F0.4
aF0.75
aF0.83
aF0.63
aF0.43
aF0.26
aF0.42
aF0.77
aF0.85
aF0.64
aF0.45
aF0.27
aF0.44
aF0.78
aF0.87
aF0.65
aF0.46
aF0.28
aF0.45
aF0.79
aF0.87
aF0.66
aF0.47
aF0.29
aF0.45
aF0.8
aF0.88
aF0.67
aF0.47
aF0.29
aF0.45
aF0.8
aF0.88
aF0.67
aF0.47
aF0.29
aF0.46
aF0.8
aF0.88
aF0.67
aF0.47
aF0.29
aa(lp403
I0
aI1
aI2
aI3
aI4
aI5
aI6
aI7
aI8
aI9
aI10
aI11
aI12
aI13
aI14
aI15
aI16
aI17
aI18
aI19
aI20
aI21
aI22
aI23
aI24
aI25
aI26
aI27
aI28
aI29
aI30
aI31
aI32
aI33
aI34
aI35
aI36
aI37
aI38
aI39
aI40
aI41
aI42
aI43
aI44
aI45
aI46
aI47
aI48
aI49
aI50
aI51
aI52
aI53
aI54
aI55
aI56
aI57
aI58
aI59
aI60
aI61
aI62
aI63
aI64
aI65
aI66
aI67
aI68
aI69
aI70
aI71
aI72
aI73
aI74
aI75
aI76
aI77
aI78
aI79
aI80
aI81
aI82
aI83
aI84
aI85
aI86
aI87
aI88
aI89
aI90
aI91
aI92
aI93
aI94
aI95
aI96
aI97
aI98
aI99
aI100
aI101
aI102
aI103
aI104
aI105
aI106
aI107
aI108
aI109
aI110
aI111
aI112
aI113
aI114
aI115
aI116
aI117
aI118
aI119
aI120
aI121
aI122
aI123
aI124
aI125
aI126
aI127
aI128
aI129
aI130
aI131
aI132
aI133
aI134
aI135
aI136
aI137
aI138
aI139
aI140
aI141
aI142
aI143
aI144
aI145
aI146
aI147
aI148
aI149
aI150
aI151
aI152
aI153
aI154
aI155
aI156
aI157
aI158
aI159
aI160
aI161
aI162
aI163
aI164
aI165
aI166
aI167
aI168
aI169
aI170
aI171
aI172
aI173
aI174
aI175
aI176
aI177
aI178
aI179
aI180
aI181
aI182
aI183
aI184
aI185
aI186
aI187
aI188
aI189
aI190
aI191
aI192
aI193
aI194
aI195
aI196
aI197
aI198
aI199
aI200
aI201
aI202
aI203
aI204
aI205
aI206
aI207
aI208
aI209
aI210
aI211
aI212
aI213
aI214
aI215
aI216
aI217
aI218
aI219
aI220
aI221
aI222
aI223
aI224
aI225
aI226
aI227
aI228
aI229
aI230
aI231
aI232
aI233
aI234
aI235
aI236
aI237
aI238
aI239
aI240
aI241
aI242
aI243
aI244
aI245
aI246
aI247
aI248
aI249
aI250
aI251
aI252
aI253
aI254
aI255
aI256
aI257
aI258
aI259
aI260
aI261
aI262
aI263
aI264
aI265
aI266
aI267
aI268
aI269
aI270
aI271
aI272
aI273
aI274
aI275
aI276
aI277
aI278
aI279
aI280
aI281
aI282
aI283
aI284
aI285
aI286
aI287
aI288
aI289
aI290
aI291
aI292
aI293
aI294
aI295
aI296
aI297
aI298
aI299
aI300
aI301
aI302
aI303
aI304
aI305
aI306
aI307
aI308
aI309
aI310
aI311
aI312
aI313
aI314
aI315
aI316
aI317
aI318
aI319
aI320
aI321
aI322
aI323
aI324
aI325
aI326
aI327
aI328
aI329
aI330
aI331
aI332
aI333
aI334
aI335
aI336
aI337
aI338
aI339
aI340
aI341
aI342
aI343
aI344
aI345
aI346
aI347
aI348
aI349
aI350
aI351
aI352
aI353
aI354
aI355
aI356
aI357
aI358
aI359
aI360
aI361
aI362
aI363
aI364
aI365
aI366
aI367
aI368
aI369
aI370
aI371
aI372
aI373
aI374
aI375
aI376
aI377
aI378
aI379
aI380
aI381
aI382
aI383
aI384
aI385
aI386
aI387
aI388
aI389
aI390
aI391
aI392
aI393
aI394
aI395
aI396
aI397
aI398
aI399
aI400
aI401
aI402
aI403
aI404
aI405
aI406
aI407
aI408
aI409
aI410
aI411
aI412
aI413
aI414
aI415
aI416
aI417
aI418
aI419
aI420
aI421
aI422
aI423
aI424
aI425
aI426
aI427
aI428
aI429
aI430
aI431
aI432
aI433
aI434
aI435
aI436
aI437
aI438
aI439
aI440
aI441
aI442
aI443
aI444
aI445
aI446
aI447
aI448
aI449
aI450
aI451
aI452
aI453
aI454
aI455
aI456
aI457
aI458
aI459
aI460
aI461
aI462
aI463
aI464
aI465
aI466
aI467
aI468
aI469
aI470
aI471
aI472
aI473
aI474
aI475
aI476
aI477
aI478
aI479
aI480
aI481
aI482
aI483
aI484
aI485
aI486
aI487
aI488
aI489
aI490
aI491
aI492
aI493
aI494
aI495
aI496
aI497
aI498
aI499
aI500
aI501
aI502
aI503
aI504
aI505
aI506
aI507
aI508
aI509
aI510
aI511
aI512
aI513
aI514
aI515
aI516
aI517
aI518
aI519
aI520
aI521
aI522
aI523
aI524
aI525
aI526
aI527
aI528
aI529
aI530
aI531
aI532
aI533
aI534
aI535
aI536
aI537
aI538
aI539
aI540
aI541
aI542
aI543
aI544
aI545
aI546
aI547
aI548
aI549
aI550
aI551
aI552
aI553
aI554
aI555
aI556
aI557
aI558
aI559
aI560
aI561
aI562
aI563
aI564
aI565
aI566
aI567
aI568
aI569
aI570
aI571
aI572
aI573
aI574
aI575
aI576
aI577
aI578
aI579
aI580
aI581
aI582
aI583
aI584
aI585
aI586
aI587
aI588
aI589
aI590
aI591
aI592
aI593
aI594
aI595
aI596
aI597
aI598
aI599
aI600
aI601
aI602
aI603
aI604
aI605
aI606
aI607
aI608
aI609
aI610
aI611
aI612
aI613
aI614
aI615
aI616
aI617
aI618
aI619
aI620
aI621
aI622
aI623
aI624
aI625
aI626
aI627
aI628
aI629
aI630
aI631
aI632
aI633
aI634
aI635
aI636
aI637
aI638
aI639
aI640
aI641
aI642
aI643
aI644
aI645
aI646
aI647
aI648
aI649
aI650
aI651
aI652
aI653
aI654
aI655
aI656
aI657
aI658
aI659
aI660
aI661
aI662
aI663
aI664
aI665
aI666
aI667
aI668
aI669
aI670
aI671
aI672
aI673
aI674
aI675
aI676
aI677
aI678
aI679
aI680
aI681
aI682
aI683
aI684
aI685
aI686
aI687
aI688
aI689
aI690
aI691
aI692
aI693
aI694
aI695
aI696
aI697
aI698
aI699
aI700
aI701
aI702
aI703
aI704
aI705
aI706
aI707
aI708
aI709
aI710
aI711
aI712
aI713
aI714
aI715
aI716
aI717
aI718
aI719
aI720
aI721
aI722
aI723
aI724
aI725
aI726
aI727
aI728
aI729
aI730
aI731
aI732
aI733
aI734
aI735
aI736
aI737
aI738
aI739
aI740
aI741
aI742
aI743
aI744
aI745
aI746
aI747
aI748
aI749
aI750
aI751
aI752
aI753
aI754
aI755
aI756
aI757
aI758
aI759
aI760
aI761
aI762
aI763
aI764
aI765
aI766
aI767
aI768
aI769
aI770
aI771
aI772
aI773
aI774
aI775
aI776
aI777
aI778
aI779
aI780
aI781
aI782
aI783
aI784
aI785
aI786
aI787
aI788
aI789
aI790
aI791
aI792
aI793
aI794
aI795
aI796
aI797
aI798
aI799
aI800
aI801
aI802
aI803
aI804
aI805
aI806
aI807
aI808
aI809
aI810
aI811
aI812
aI813
aI814
aI815
aI816
aI817
aI818
aI819
aI820
aI821
aI822
aI823
aI824
aI825
aI826
aI827
aI828
aI829
aI830
aI831
aI832
aI833
aI834
aI835
aI836
aI837
aI838
aI839
aI840
aI841
aI842
aI843
aI844
aI845
aI846
aI847
aI848
aI849
aI850
aI851
aI852
aI853
aI854
aI855
aI856
aI857
aI858
aI859
aI860
aI861
aI862
aI863
aI864
aI865
aI866
aI867
aI868
aI869
aI870
aI871
aI872
aI873
aI874
aI875
aI876
aI877
aI878
aI879
aI880
aI881
aI882
aI883
aI884
aI885
aI886
aI887
aI888
aI889
aI890
aI891
aI892
aI893
aI894
aI895
aI896
aI897
aI898
aI899
aI900
aI901
aI902
aI903
aI904
aI905
aI906
aI907
aI908
aI909
aI910
aI911
aI912
aI913
aI914
aI915
aI916
aI917
aI918
aI919
aI920
aI921
aI922
aI923
aI924
aI925
aI926
aI927
aI928
aI929
aI930
aI931
aI932
aI933
aI934
aI935
aI936
aI937
aI938
aI939
aI940
aI941
aI942
aI943
aI944
aI945
aI946
aI947
aI948
aI949
aI950
aI951
aI952
aI953
aI954
aI955
aI956
aI957
aI958
aI959
aI960
aI961
aI962
aI963
aI964
aI965
aI966
aI967
aI968
aI969
aI970
aI971
aI972
aI973
aI974
aI975
aI976
aI977
aI978
aI979
aI980
aI981
aI982
aI983
aI984
aI985
aI986
aI987
aI988
aI989
aI990
aI991
aI992
aI993
aI994
aI995
aI996
aI997
aI998
aI999
aI1000
aI1001
aI1002
aI1003
aI1004
aI1005
aI1006
aI1007
aI1008
aI1009
aI1010
aI1011
aI1012
aI1013
aI1014
aI1015
aI1016
aI1017
aI1018
aI1019
aI1020
aI1021
aI1022
aI1023
aI1024
aI1025
aI1026
aI1027
aI1028
aI1029
aI1030
aI1031
aI1032
aI1033
aI1034
aI1035
aI1036
aI1037
aI1038
aI1039
aI1040
aI1041
aI1042
aI1043
aI1044
aI1045
aI1046
aI1047
aI1048
aI1049
aI1050
aI1051
aI1052
aI1053
aI1054
aI1055
aI1056
aI1057
aI1058
aI1059
aI1060
aI1061
aI1062
aI1063
aI1064
aI1065
aI1066
aI1067
aI1068
aI1069
aI1070
aI1071
aI1072
aI1073
aI1074
aI1075
aI1076
aI1077
aI1078
aI1079
aI1080
aI1081
aI1082
aI1083
aI1084
aI1085
aI1086
aI1087
aI1088
aI1089
aI1090
aI1091
aI1092
aI1093
aI1094
aI1095
aI1096
aI1097
aI1098
aI1099
aI1100
aI1101
aI1102
aI1103
aI1104
aI1105
aI1106
aI1107
aI1108
aI1109
aI1110
aI1111
aI1112
aI1113
aI1114
aI1115
aI1116
aI1117
aI1118
aI1119
aI1120
aI1121
aI1122
aI1123
aI1124
aI1125
aI1126
aI1127
aI1128
aI1129
aI1130
aI1131
aI1132
aI1133
aI1134
aI1135
aI1136
aI1137
aI1138
aI1139
aI1140
aI1141
aI1142
aI1143
aI1144
aI1145
aI1146
aI1147
aI1148
aI1149
aI1150
aI1151
aI1152
aI1153
aI1154
aI1155
aI1156
aI1157
aI1158
aI1159
aI1160
aI1161
aI1162
aI1163
aI1164
aI1165
aI1166
aI1167
aI1168
aI1169
aI1170
aI1171
aI1172
aI1173
aI1174
aI1175
aI1176
aI1177
aI1178
aI1179
aI1180
aI1181
aI1182
aI1183
aI1184
aI1185
aI1186
aI1187
aI1188
aI1189
aI1190
aI1191
aI1192
aI1193
aI1194
aI1195
aI1196
aI1197
aI1198
aI1199
aI1200
aI1201
aI1202
aI1203
aI1204
aI1205
aI1206
aI1207
aI1208
aI1209
aI1210
aI1211
aI1212
aI1213
aI1214
aI1215
aI1216
aI1217
aI1218
aI1219
aI1220
aI1221
aI1222
aI1223
aI1224
aI1225
aI1226
aI1227
aI1228
aI1229
aI1230
aI1231
aI1232
aI1233
aI1234
aI1235
aI1236
aI1237
aI1238
aI1239
aI1240
aI1241
aI1242
aI1243
aI1244
aI1245
aI1246
aI1247
aI1248
aI1249
aI1250
aI1251
aI1252
aI1253
aI1254
aI1255
aI1256
aI1257
aI1258
aI1259
aI1260
aI1261
aI1262
aI1263
aI1264
aI1265
aI1266
aI1267
aI1268
aI1269
aI1270
aI1271
aI1272
aI1273
aI1274
aI1275
aI1276
aI1277
aI1278
aI1279
aI1280
aI1281
aI1282
aI1283
aI1284
aI1285
aI1286
aI1287
aI1288
aI1289
aI1290
aI1291
aI1292
aI1293
aI1294
aI1295
aI1296
aI1297
aI1298
aI1299
aI1300
aI1301
aI1302
aI1303
aI1304
aI1305
aI1306
aI1307
aI1308
aI1309
aI1310
aI1311
aI1312
aI1313
aI1314
aI1315
aI1316
aI1317
aI1318
aI1319
aI1320
aI1321
aI1322
aI1323
aI1324
aI1325
aI1326
aI1327
aI1328
aI1329
aI1330
aI1331
aI1332
aI1333
aI1334
aI1335
aI1336
aI1337
aI1338
aI1339
aI1340
aI1341
aI1342
aI1343
aI1344
aI1345
aI1346
aI1347
aI1348
aI1349
aI1350
aI1351
aI1352
aI1353
aI1354
aI1355
aI1356
aI1357
aI1358
aI1359
aI1360
aI1361
aI1362
aI1363
aI1364
aI1365
aI1366
aI1367
aI1368
aI1369
aI1370
aI1371
aI1372
aI1373
aI1374
aI1375
aI1376
aI1377
aI1378
aI1379
aI1380
aI1381
aI1382
aI1383
aI1384
aI1385
aI1386
aI1387
aI1388
aI1389
aI1390
aI1391
aI1392
aI1393
aI1394
aI1395
aI1396
aI1397
aI1398
aI1399
aI1400
aI1401
aI1402
aI1403
aI1404
aI1405
aI1406
aI1407
aI1408
aI1409
aI1410
aI1411
aI1412
aI1413
aI1414
aI1415
aI1416
aI1417
aI1418
aI1419
aI1420
aI1421
aI1422
aI1423
aI1424
aI1425
aI1426
aI1427
aI1428
aI1429
aI1430
aI1431
aI1432
aI1433
aI1434
aI1435
aI1436
aI1437
aI1438
aI1439
aI1440
aI1441
aI1442
aI1443
aI1444
aI1445
aI1446
aI1447
aI1448
aI1449
aI1450
aI1451
aI1452
aI1453
aI1454
aI1455
aI1456
aI1457
aI1458
aI1459
aI1460
aI1461
aI1462
aI1463
aI1464
aI1465
aI1466
aI1467
aI1468
aI1469
aI1470
aI1471
aI1472
aI1473
aI1474
aI1475
aI1476
aI1477
aI1478
aI1479
aI1480
aI1481
aI1482
aI1483
aI1484
aI1485
aI1486
aI1487
aI1488
aI1489
aI1490
aI1491
aI1492
aI1493
aI1494
aI1495
aI1496
aI1497
aI1498
aI1499
aI1500
aI1501
aI1502
aI1503
aI1504
aI1505
aI1506
aI1507
aI1508
aI1509
aI1510
aI1511
aI1512
aI1513
aI1514
aI1515
aI1516
aI1517
aI1518
aI1519
aI1520
aI1521
aI1522
aI1523
aI1524
aI1525
aI1526
aI1527
aI1528
aI1529
aI1530
aI1531
aI1532
aI1533
aI1534
aI1535
aI1536
aI1537
aI1538
aI1539
aI1540
aI1541
aI1542
aI1543
aI1544
aI1545
aI1546
aI1547
aI1548
aI1549
aI1550
aI1551
aI1552
aI1553
aI1554
aI1555
aI1556
aI1557
aI1558
aI1559
aI1560
aI1561
aI1562
aI1563
aI1564
aI1565
aI1566
aI1567
aI1568
aI1569
aI1570
aI1571
aI1572
aI1573
aI1574
aI1575
aI1576
aI1577
aI1578
aI1579
aI1580
aI1581
aI1582
aI1583
aI1584
aI1585
aI1586
aI1587
aI1588
aI1589
aI1590
aI1591
aI1592
aI1593
aI1594
aI1595
aI1596
aI1597
aI1598
aI1599
aI1600
aI1601
aI1602
aI1603
aI1604
aI1605
aI1606
aI1607
aI1608
aI1609
aI1610
aI1611
aI1612
aI1613
aI1614
aI1615
aI1616
aI1617
aI1618
aI1619
aI1620
aI1621
aI1622
aI1623
aI1624
aI1625
aI1626
aI1627
aI1628
aI1629
aI1630
aI1631
aI1632
aI1633
aI1634
aI1635
aI1636
aI1637
aI1638
aI1639
aI1640
aI1641
aI1642
aI1643
aI1644
aI1645
aI1646
aI1647
aI1648
aI1649
aI1650
aI1651
aI1652
aI1653
aI1654
aI1655
aI1656
aI1657
aI1658
aI1659
aI1660
aI1661
aI1662
aI1663
aI1664
aI1665
aI1666
aI1667
aI1668
aI1669
aI1670
aI1671
aI1672
aI1673
aI1674
aI1675
aI1676
aI1677
aI1678
aI1679
aI1680
aI1681
aI1682
aI1683
aI1684
aI1685
aI1686
aI1687
aI1688
aI1689
aI1690
aI1691
aI1692
aI1693
aI1694
aI1695
aI1696
aI1697
aI1698
aI1699
aI1700
aI1701
aI1702
aI1703
aI1704
aI1705
aI1706
aI1707
aI1708
aI1709
aI1710
aI1711
aI1712
aI1713
aI1714
aI1715
aI1716
aI1717
aI1718
aI1719
aI1720
aI1721
aI1722
aI1723
aI1724
aI1725
aI1726
aI1727
aI1728
aI1729
aI1730
aI1731
aI1732
aI1733
aI1734
aI1735
aI1736
aI1737
aI1738
aI1739
aI1740
aI1741
aI1742
aI1743
aI1744
aI1745
aI1746
aI1747
aI1748
aI1749
aI1750
aI1751
aI1752
aI1753
aI1754
aI1755
aI1756
aI1757
aI1758
aI1759
aI1760
aI1761
aI1762
aI1763
aI1764
aI1765
aI1766
aI1767
aI1768
aI1769
aI1770
aI1771
aI1772
aI1773
aI1774
aI1775
aI1776
aI1777
aI1778
aI1779
aI1780
aI1781
aI1782
aI1783
aI1784
aI1785
aI1786
aI1787
aI1788
aI1789
aI1790
aI1791
aI1792
aI1793
aI1794
aI1795
aI1796
aI1797
aI1798
aI1799
aI1800
aI1801
aI1802
aI1803
aI1804
aI1805
aI1806
aI1807
aI1808
aI1809
aI1810
aI1811
aI1812
aI1813
aI1814
aI1815
aI1816
aI1817
aI1818
aI1819
aI1820
aI1821
aI1822
aI1823
aI1824
aI1825
aI1826
aI1827
aI1828
aI1829
aI1830
aI1831
aI1832
aI1833
aI1834
aI1835
aI1836
aI1837
aI1838
aI1839
aI1840
aI1841
aI1842
aI1843
aI1844
aI1845
aI1846
aI1847
aI1848
aI1849
aI1850
aI1851
aI1852
aI1853
aI1854
aI1855
aI1856
aI1857
aI1858
aI1859
aI1860
aI1861
aI1862
aI1863
aI1864
aI1865
aI1866
aI1867
aI1868
aI1869
aI1870
aI1871
aI1872
aI1873
aI1874
aI1875
aI1876
aI1877
aI1878
aI1879
aI1880
aI1881
aI1882
aI1883
aI1884
aI1885
aI1886
aI1887
aI1888
aI1889
aI1890
aI1891
aI1892
aI1893
aI1894
aI1895
aI1896
aI1897
aI1898
aI1899
aI1900
aI1901
aI1902
aI1903
aI1904
aI1905
aI1906
aI1907
aI1908
aI1909
aI1910
aI1911
aI1912
aI1913
aI1914
aI1915
aI1916
aI1917
aI1918
aI1919
aI1920
aI1921
aI1922
aI1923
aI1924
aI1925
aI1926
aI1927
aI1928
aI1929
aI1930
aI1931
aI1932
aI1933
aI1934
aI1935
aI1936
aI1937
aI1938
aI1939
aI1940
aI1941
aI1942
aa(lp404
I119
aI133
aI111
aI96
aI113
aI134
aI130
aI120
aI131
aI123
aI112
aI133
aI124
aI143
aI110
aI121
aI141
aI128
aI118
aI136
aI113
aI146
aI131
aI144
aI106
aI103
aI136
aI132
aI118
aI140
aI140
aI125
aI135
aI126
aI136
aI140
aI138
aI127
aI134
aI134
aI137
aI139
aI120
aI124
aI132
aI126
aI119
aI126
aI132
aI118
aI123
aI115
aI99
aI114
aI124
aI130
aI135
aI126
aI136
aI129
aI133
aI107
aI131
aI132
aI114
aI131
aI130
aI106
aI140
aI128
aI135
aI133
aI130
aI127
aI136
aI136
aI146
aI135
aI104
aI136
aI119
aI109
aI83
aI130
aI138
aI111
aI133
aI132
aI100
aI135
aI114
aI126
aI125
aI128
aI131
aI111
aI139
aI127
aI120
aI104
aI135
aI124
aI139
aI146
aI139
aI103
aI128
aI130
aI142
aI112
aI132
aI114
aI111
aI115
aI132
aI118
aI120
aI132
aI143
aI111
aI134
aI121
aI136
aI138
aI141
aI134
aI119
aI131
aI119
aI112
aI136
aI138
aI114
aI139
aI129
aI136
aI114
aI105
aI101
aI134
aI138
aI135
aI115
aI122
aI130
aI132
aI94
aI133
aI134
aI103
aI137
aI118
aI132
aI131
aI131
aI131
aI135
aI112
aI104
aI108
aI137
aI91
aI108
aI132
aI137
aI133
aI114
aI115
aI103
aI112
aI141
aI124
aI132
aI127
aI135
aI142
aI130
aI132
aI141
aI109
aI120
aI104
aI136
aI137
aI99
aI130
aI131
aI137
aI139
aI136
aI140
aI100
aI140
aI135
aI135
aI108
aI107
aI131
aI134
aI110
aI138
aI121
aI138
aI140
aI122
aI102
aI108
aI120
aI132
aI125
aI114
aI108
aI135
aI132
aI111
aI132
aI114
aI136
aI131
aI122
aI116
aI83
aI136
aI118
aI138
aI114
aI140
aI135
aI139
aI102
aI138
aI117
aI118
aI128
aI105
aI135
aI121
aI127
aI113
aI120
aI125
aI132
aI132
aI134
aI129
aI120
aI106
aI138
aI130
aI138
aI122
aI108
aI133
aI131
aI103
aI140
aI140
aI115
aI122
aI133
aI132
aI118
aI133
aI96
aI129
aI117
aI135
aI129
aI132
aI121
aI118
aI107
aI121
aI110
aI119
aI112
aI126
aI118
aI136
aI137
aI107
aI136
aI95
aI134
aI115
aI138
aI117
aI123
aI125
aI123
aI133
aI133
aI138
aI139
aI136
aI119
aI120
aI132
aI106
aI130
aI139
aI119
aI129
aI102
aI136
aI132
aI142
aI137
aI138
aI133
aI129
aI133
aI121
aI123
aI133
aI138
aI137
aI132
aI126
aI142
aI132
aI120
aI117
aI138
aI115
aI127
aI103
aI98
aI140
aI120
aI140
aI110
aI117
aI133
aI108
aI133
aI132
aI116
aI121
aI138
aI129
aI121
aI121
aI110
aI137
aI147
aI124
aI132
aI113
aI135
aI132
aI137
aI136
aI138
aI136
aI120
aI112
aI123
aI135
aI132
aI133
aI96
aI109
aI131
aI113
aI134
aI143
aI104
aI122
aI131
aI125
aI132
aI125
aI104
aI130
aI124
aI100
aI137
aI141
aI139
aI107
aI134
aI123
aI101
aI132
aI120
aI103
aI107
aI133
aI114
aI132
aI140
aI142
aI140
aI107
aI100
aI133
aI132
aI134
aI136
aI132
aI115
aI125
aI120
aI141
aI111
aI124
aI127
aI128
aI128
aI104
aI121
aI102
aI124
aI136
aI135
aI109
aI125
aI123
aI129
aI132
aI117
aI141
aI133
aI135
aI123
aI104
aI137
aI138
aI132
aI137
aI128
aI128
aI106
aI132
aI137
aI113
aI139
aI95
aI140
aI117
aI115
aI132
aI117
aI136
aI109
aI118
aI108
aI137
aI136
aI112
aI136
aI127
aI119
aI105
aI103
aI129
aI138
aI138
aI107
aI107
aI108
aI134
aI116
aI132
aI147
aI122
aI132
aI132
aI114
aI108
aI128
aI120
aI132
aI132
aI122
aI130
aI113
aI132
aI136
aI103
aI138
aI146
aI102
aI121
aI101
aI129
aI132
aI131
aI141
aI125
aI132
aI133
aI128
aI132
aI116
aI116
aI112
aI133
aI137
aI121
aI132
aI128
aI139
aI132
aI130
aI118
aI132
aI130
aI124
aI137
aI121
aI130
aI123
aI113
aI132
aI132
aI137
aI126
aI119
aI136
aI121
aI132
aI103
aI136
aI132
aI128
aI109
aI137
aI139
aI113
aI109
aI106
aI130
aI124
aI110
aI110
aI132
aI143
aI140
aI133
aI138
aI108
aI130
aI133
aI101
aI132
aI136
aI119
aI99
aI131
aI120
aI130
aI109
aI107
aI130
aI132
aI147
aI111
aI103
aI127
aI106
aI93
aI137
aI138
aI133
aI112
aI138
aI106
aI137
aI107
aI142
aI106
aI107
aI137
aI103
aI130
aI132
aI131
aI126
aI123
aI122
aI139
aI109
aI135
aI140
aI121
aI123
aI132
aI132
aI142
aI123
aI140
aI104
aI134
aI145
aI106
aI114
aI132
aI138
aI117
aI135
aI100
aI132
aI140
aI109
aI130
aI113
aI135
aI139
aI109
aI137
aI107
aI127
aI133
aI135
aI136
aI132
aI126
aI139
aI139
aI126
aI126
aI133
aI130
aI100
aI127
aI107
aI132
aI120
aI109
aI126
aI133
aI105
aI136
aI129
aI113
aI126
aI121
aI106
aI112
aI137
aI108
aI135
aI129
aI96
aI138
aI113
aI132
aI115
aI101
aI102
aI107
aI141
aI132
aI135
aI120
aI114
aI103
aI116
aI107
aI111
aI114
aI142
aI132
aI129
aI145
aI133
aI126
aI143
aI136
aI110
aI120
aI141
aI132
aI112
aI127
aI112
aI130
aI127
aI143
aI139
aI106
aI132
aI110
aI111
aI140
aI127
aI101
aI103
aI133
aI110
aI131
aI132
aI118
aI127
aI129
aI135
aI137
aI129
aI119
aI137
aI120
aI132
aI136
aI143
aI118
aI129
aI127
aI96
aI142
aI134
aI144
aI137
aI133
aI110
aI105
aI132
aI125
aI134
aI138
aI136
aI117
aI103
aI133
aI104
aI106
aI122
aI90
aI143
aI119
aI100
aI132
aI131
aI114
aI128
aI136
aI137
aI136
aI137
aI135
aI116
aI106
aI134
aI133
aI107
aI132
aI130
aI138
aI124
aI136
aI124
aI128
aI133
aI131
aI128
aI138
aI134
aI144
aI117
aI106
aI107
aI116
aI116
aI119
aI104
aI125
aI132
aI119
aI108
aI109
aI116
aI130
aI98
aI140
aI135
aI122
aI132
aI111
aI133
aI128
aI137
aI135
aI128
aI138
aI132
aI99
aI133
aI102
aI132
aI135
aI110
aI100
aI136
aI115
aI136
aI140
aI133
aI107
aI106
aI109
aI130
aI142
aI135
aI119
aI132
aI127
aI105
aI142
aI112
aI141
aI137
aI132
aI105
aI128
aI136
aI132
aI142
aI116
aI132
aI110
aI120
aI133
aI109
aI137
aI107
aI105
aI130
aI114
aI120
aI132
aI113
aI138
aI131
aI137
aI138
aI113
aI134
aI114
aI92
aI138
aI132
aI141
aI106
aI137
aI119
aI99
aI132
aI136
aI125
aI130
aI132
aI143
aI138
aI132
aI132
aI126
aI144
aI107
aI136
aI130
aI119
aI142
aI108
aI129
aI128
aI130
aI138
aI134
aI103
aI133
aI111
aI107
aI124
aI143
aI106
aI125
aI126
aI120
aI137
aI129
aI132
aI132
aI113
aI111
aI136
aI116
aI135
aI133
aI139
aI137
aI110
aI125
aI114
aI127
aI112
aI131
aI133
aI132
aI132
aI133
aI128
aI113
aI135
aI129
aI133
aI132
aI130
aI118
aI129
aI137
aI133
aI133
aI136
aI99
aI132
aI103
aI116
aI137
aI137
aI139
aI125
aI115
aI135
aI114
aI138
aI138
aI135
aI120
aI116
aI127
aI133
aI119
aI130
aI135
aI137
aI105
aI150
aI126
aI91
aI135
aI117
aI133
aI129
aI136
aI129
aI137
aI117
aI106
aI126
aI134
aI137
aI115
aI124
aI113
aI138
aI137
aI115
aI136
aI148
aI133
aI109
aI137
aI109
aI131
aI132
aI131
aI132
aI129
aI133
aI114
aI111
aI121
aI136
aI108
aI132
aI131
aI128
aI129
aI142
aI129
aI132
aI131
aI98
aI115
aI132
aI129
aI137
aI137
aI134
aI107
aI114
aI144
aI114
aI135
aI117
aI132
aI134
aI118
aI122
aI140
aI94
aI128
aI112
aI132
aI132
aI118
aI107
aI102
aI116
aI135
aI131
aI131
aI113
aI128
aI134
aI138
aI129
aI106
aI139
aI132
aI137
aI114
aI137
aI134
aI125
aI139
aI132
aI132
aI121
aI123
aI129
aI140
aI132
aI122
aI127
aI127
aI129
aI110
aI138
aI134
aI134
aI126
aI128
aI123
aI104
aI96
aI119
aI127
aI126
aI112
aI119
aI132
aI132
aI130
aI127
aI104
aI132
aI130
aI137
aI116
aI131
aI133
aI108
aI120
aI100
aI124
aI137
aI137
aI125
aI137
aI80
aI98
aI135
aI139
aI113
aI117
aI136
aI134
aI101
aI135
aI115
aI137
aI131
aI101
aI137
aI134
aI110
aI132
aI134
aI131
aI123
aI104
aI137
aI101
aI133
aI100
aI124
aI111
aI118
aI135
aI123
aI132
aI125
aI105
aI137
aI144
aI138
aI137
aI133
aI109
aI119
aI136
aI132
aI109
aI122
aI142
aI122
aI132
aI128
aI133
aI132
aI114
aI107
aI137
aI123
aI104
aI135
aI133
aI135
aI132
aI128
aI130
aI113
aI128
aI133
aI135
aI114
aI137
aI136
aI132
aI132
aI112
aI105
aI107
aI128
aI121
aI102
aI130
aI103
aI132
aI128
aI126
aI133
aI115
aI114
aI143
aI130
aI130
aI133
aI142
aI114
aI126
aI127
aI124
aI119
aI130
aI127
aI133
aI124
aI137
aI140
aI132
aI138
aI126
aI137
aI129
aI131
aI97
aI141
aI136
aI134
aI126
aI130
aI131
aI119
aI132
aI140
aI112
aI132
aI137
aI128
aI121
aI108
aI120
aI137
aI131
aI135
aI136
aI132
aI107
aI134
aI134
aI129
aI100
aI133
aI104
aI128
aI113
aI115
aI104
aI136
aI128
aI133
aI139
aI133
aI135
aI136
aI146
aI127
aI111
aI110
aI132
aI130
aI130
aI108
aI139
aI140
aI113
aI143
aI132
aI130
aI130
aI129
aI139
aI107
aI134
aI116
aI113
aI124
aI142
aI133
aI134
aI104
aI140
aI132
aI134
aI135
aI132
aI103
aI115
aI127
aI123
aI106
aI146
aI107
aI139
aI121
aI116
aI126
aI104
aI109
aI140
aI150
aI110
aI99
aI131
aI137
aI123
aI137
aI132
aI113
aI132
aI139
aI137
aI114
aI118
aI129
aI133
aI105
aI126
aI116
aI135
aI132
aI127
aI130
aI119
aI133
aI135
aI137
aI106
aI121
aI119
aI117
aI140
aI103
aI139
aI137
aI136
aI127
aI132
aI130
aI137
aI135
aI116
aI126
aI99
aI136
aI137
aI119
aI103
aI107
aI113
aI133
aI109
aI120
aI123
aI134
aI126
aI141
aI124
aI132
aI114
aI135
aI136
aI137
aI113
aI125
aI132
aI137
aI139
aI125
aI137
aI136
aI130
aI131
aI141
aI133
aI129
aI132
aI108
aI106
aI132
aI126
aI138
aI107
aI136
aI112
aI121
aI135
aI129
aI134
aI96
aI142
aI107
aI109
aI125
aI132
aI129
aI132
aI121
aI138
aI134
aI130
aI96
aI142
aI137
aI130
aI129
aI119
aI115
aI134
aI140
aI118
aI138
aI136
aI102
aI133
aI131
aI136
aI120
aI138
aI110
aI116
aI110
aI131
aI138
aI126
aI113
aI142
aI117
aI126
aI108
aI132
aI136
aI107
aI130
aI132
aI115
aI121
aI136
aI132
aI132
aI139
aI122
aI103
aI103
aI144
aI115
aI137
aI116
aI138
aI122
aI114
aI121
aI130
aI130
aI116
aI132
aI135
aI129
aI136
aI112
aI137
aI143
aI119
aI136
aI106
aI132
aI131
aI112
aI126
aI132
aI132
aI127
aI143
aI135
aI122
aI130
aI140
aI138
aI102
aI132
aI128
aI130
aI135
aI114
aI135
aI113
aI138
aI100
aI133
aI131
aI116
aI121
aI134
aI132
aI122
aI132
aI142
aI137
aI128
aI131
aI117
aI136
aI119
aI103
aI128
aI124
aI140
aI101
aI138
aI133
aI125
aI130
aI109
aI135
aI135
aI145
aI142
aI125
aI108
aI145
aI119
aI133
aI126
aI124
aI113
aI141
aI132
aI137
aI126
aI123
aI136
aI131
aI105
aI126
aI137
aI118
aI148
aI133
aI116
aI133
aI98
aI135
aI147
aI124
aI104
aI136
aI128
aI132
aI133
aI133
aI133
aI85
aI111
aI111
aI110
aI132
aI104
aI141
aI139
aI131
aI132
aI117
aI112
aI128
aI106
aI127
aI138
aI113
aI128
aI147
aI120
aI113
aI137
aI114
aI132
aI95
aI133
aI122
aI130
aI89
aI139
aI137
aI125
aI138
aI123
aI111
aI129
aI116
aI127
aI147
aI124
aI130
aI113
aI122
aI132
aI132
aI119
aI135
aI114
aI107
aI118
aI139
aI138
aI129
aI132
aI124
aI105
aI107
aI98
aI137
aI116
aI130
aI132
aI107
aI132
aI137
aI133
aI111
aI136
aI100
aI126
aI127
aI130
aI127
aI127
aI121
aI105
aI136
aI141
aI133
aI136
aI117
aI110
aI130
aI140
aI145
aI110
aI125
aI110
aI131
aI119
aI138
aI133
aI136
aI133
aI114
aI131
aI131
aI135
aI102
aI130
aI131
aI133
aI132
aI133
aI135
aI128
aI133
aI117
aI137
aI122
aI132
aI125
aI108
aI129
aI129
aI131
aI120
aI120
aI138
aI108
aI108
aI122
aI125
aI126
aI125
aI107
aI126
aI130
aI138
aI115
aI137
aI109
aI142
aI101
aI137
aI135
aI106
aI132
aI107
aI118
aI132
aI137
aI128
aI103
aI136
aI118
aI119
aI116
aI135
aI134
aI105
aI119
aI130
aI134
aI127
aI123
aI111
aI131
aI113
aI132
aI113
aI112
aI141
aI125
aI134
aI140
aI97
aI132
aI138
aI113
aI120
aI136
aI128
aI129
aI125
aI132
aI120
aI108
aI122
aI112
aI134
aI118
aI136
aI93
aI132
aI136
aI114
aI121
aI131
aI127
aI128
aI113
aI106
aI118
aI140
aI138
aI130
aI106
aI143
aI138
aI97
aI121
aI130
aI117
aI130
aI130
aI132
aI141
aI132
aI119
aI140
aI114
aI133
aI123
aI135
aI137
aI136
aI134
aI97
aI129
aI119
aI133
aI128
aI109
aI102
aI114
aI132
aI126
aI107
aI136
aI106
aI133
aI132
aI114
aI115
aI131
aI130
aI132
aI130
aI118
aI133
aI105
aI136
aI116
aI127
aI131
aI132
aI128
aI139
aI127
aI130
aI130
aI104
aI133
aI132
aI124
aI111
aI124
aI103
aI143
aI133
aI141
aI103
aI138
aI126
aI141
aI103
aI118
aI134
aI126
aI138
aI115
aI141
aI109
aI126
aI117
aI119
aI135
aI139
aI108
aI108
aI132
aI137
aI141
aI110
aI132
aI135
aI107
aI130
aI136
aI130
aI113
aI137
aI134
aI128
aI132
aI139
aI135
aI109
aI128
aI131
aI120
aI108
aI121
aI138
aI124
aI136
aI130
aI107
aI128
aI132
aI119
aI126
aI134
aI93
aI117
aI130
aI118
aI125
aI132
aI133
aI143
aI137
aI125
aI132
aI130
aI132
aI117
aI133
aI121
aI137
aI126
aI133
aI116
aI113
aI136
aI127
aI117
aI118
aI100
aI139
aI136
aI134
aI115
aI120
aI132
aI119
aI138
aI117
aI101
aI126
aI139
aI108
aI132
aI124
aI137
aI123
aI138
aI108
aI105
aI123
aI123
aI132
aI115
aI111
aI111
aI116
aI134
aI106
aI126
aI135
aI112
aI147
aI132
aI129
aI135
aI118
aI138
aI105
aI102
aI106
aI132
aI141
aI137
aI118
aI122
aI134
aI135
aI117
aI128
aI114
aI137
aI120
aI120
aI138
aI140
aI129
aI127
aI133
aI121
aI133
aI100
aI124
aI121
aI131
aI124
aI129
aI136
aI136
aI128
aI132
aI122
aI143
aI109
aI135
aI143
aI132
aI130
aI132
aI132
aI139
aI128
aI129
aI129
aI122
aI135
aI132
aI110
aI153
aaS'1-Qtable_TL_NE-Simple(curr_time_m_SC_norm)-Act3-1h'
p405
aI1943
a.