(lp0
(lp1
I10
aI8
aI8
aI6
aI3
aI0
aI0
aI0
aI0
aI6
aI8
aI3
aI0
aI0
aI0
aI6
aI8
aI3
aI0
aI0
aI0
aI6
aI8
aI3
aI0
aI0
aI0
aI6
aI8
aI3
aI0
aI0
aI0
aI6
aI8
aI3
aI0
aI0
aI0
aI6
aI8
aI3
aI0
aI0
aI0
aI6
aa(lp2
cnumpy.core.multiarray
scalar
p3
(cnumpy
dtype
p4
(S'i8'
p5
I0
I1
tp6
Rp7
(I3
S'<'
p8
NNNI-1
I-1
I0
tp9
bS'\x02\x00\x00\x00\x00\x00\x00\x00'
p10
tp11
Rp12
ag3
(g7
S'\x02\x00\x00\x00\x00\x00\x00\x00'
p13
tp14
Rp15
ag3
(g7
S'\x02\x00\x00\x00\x00\x00\x00\x00'
p16
tp17
Rp18
ag3
(g7
S'\x02\x00\x00\x00\x00\x00\x00\x00'
p19
tp20
Rp21
ag3
(g7
S'\x00\x00\x00\x00\x00\x00\x00\x00'
p22
tp23
Rp24
ag3
(g7
S'\x00\x00\x00\x00\x00\x00\x00\x00'
p25
tp26
Rp27
ag3
(g7
S'\x00\x00\x00\x00\x00\x00\x00\x00'
p28
tp29
Rp30
ag3
(g7
S'\x00\x00\x00\x00\x00\x00\x00\x00'
p31
tp32
Rp33
ag3
(g7
S'\x00\x00\x00\x00\x00\x00\x00\x00'
p34
tp35
Rp36
ag3
(g7
S'\x00\x00\x00\x00\x00\x00\x00\x00'
p37
tp38
Rp39
ag3
(g7
S'\x00\x00\x00\x00\x00\x00\x00\x00'
p40
tp41
Rp42
ag3
(g7
S'\x00\x00\x00\x00\x00\x00\x00\x00'
p43
tp44
Rp45
ag3
(g7
S'\x00\x00\x00\x00\x00\x00\x00\x00'
p46
tp47
Rp48
ag3
(g7
S'\x00\x00\x00\x00\x00\x00\x00\x00'
p49
tp50
Rp51
ag3
(g7
S'\x00\x00\x00\x00\x00\x00\x00\x00'
p52
tp53
Rp54
ag3
(g7
S'\x00\x00\x00\x00\x00\x00\x00\x00'
p55
tp56
Rp57
ag3
(g7
S'\x00\x00\x00\x00\x00\x00\x00\x00'
p58
tp59
Rp60
ag3
(g7
S'\x00\x00\x00\x00\x00\x00\x00\x00'
p61
tp62
Rp63
ag3
(g7
S'\x00\x00\x00\x00\x00\x00\x00\x00'
p64
tp65
Rp66
ag3
(g7
S'\x00\x00\x00\x00\x00\x00\x00\x00'
p67
tp68
Rp69
ag3
(g7
S'\x00\x00\x00\x00\x00\x00\x00\x00'
p70
tp71
Rp72
ag3
(g7
S'\x00\x00\x00\x00\x00\x00\x00\x00'
p73
tp74
Rp75
ag3
(g7
S'\x00\x00\x00\x00\x00\x00\x00\x00'
p76
tp77
Rp78
ag3
(g7
S'\x00\x00\x00\x00\x00\x00\x00\x00'
p79
tp80
Rp81
ag3
(g7
S'\x00\x00\x00\x00\x00\x00\x00\x00'
p82
tp83
Rp84
ag3
(g7
S'\x00\x00\x00\x00\x00\x00\x00\x00'
p85
tp86
Rp87
ag3
(g7
S'\x00\x00\x00\x00\x00\x00\x00\x00'
p88
tp89
Rp90
ag3
(g7
S'\x00\x00\x00\x00\x00\x00\x00\x00'
p91
tp92
Rp93
ag3
(g7
S'\x00\x00\x00\x00\x00\x00\x00\x00'
p94
tp95
Rp96
ag3
(g7
S'\x00\x00\x00\x00\x00\x00\x00\x00'
p97
tp98
Rp99
ag3
(g7
S'\x00\x00\x00\x00\x00\x00\x00\x00'
p100
tp101
Rp102
ag3
(g7
S'\x00\x00\x00\x00\x00\x00\x00\x00'
p103
tp104
Rp105
ag3
(g7
S'\x00\x00\x00\x00\x00\x00\x00\x00'
p106
tp107
Rp108
ag3
(g7
S'\x00\x00\x00\x00\x00\x00\x00\x00'
p109
tp110
Rp111
ag3
(g7
S'\x00\x00\x00\x00\x00\x00\x00\x00'
p112
tp113
Rp114
ag3
(g7
S'\x00\x00\x00\x00\x00\x00\x00\x00'
p115
tp116
Rp117
ag3
(g7
S'\x00\x00\x00\x00\x00\x00\x00\x00'
p118
tp119
Rp120
ag3
(g7
S'\x00\x00\x00\x00\x00\x00\x00\x00'
p121
tp122
Rp123
ag3
(g7
S'\x00\x00\x00\x00\x00\x00\x00\x00'
p124
tp125
Rp126
ag3
(g7
S'\x00\x00\x00\x00\x00\x00\x00\x00'
p127
tp128
Rp129
ag3
(g7
S'\x00\x00\x00\x00\x00\x00\x00\x00'
p130
tp131
Rp132
ag3
(g7
S'\x00\x00\x00\x00\x00\x00\x00\x00'
p133
tp134
Rp135
ag3
(g7
S'\x00\x00\x00\x00\x00\x00\x00\x00'
p136
tp137
Rp138
ag3
(g7
S'\x00\x00\x00\x00\x00\x00\x00\x00'
p139
tp140
Rp141
ag3
(g7
S'\x00\x00\x00\x00\x00\x00\x00\x00'
p142
tp143
Rp144
ag3
(g7
S'\x00\x00\x00\x00\x00\x00\x00\x00'
p145
tp146
Rp147
aa(lp148
I3
aI3
aI3
aI3
aI2
aI1
aI0
aI0
aI0
aI0
aI0
aI0
aI0
aI0
aI0
aI0
aI0
aI0
aI0
aI0
aI0
aI0
aI0
aI0
aI0
aI0
aI0
aI0
aI0
aI0
aI0
aI0
aI0
aI0
aI0
aI0
aI0
aI0
aI0
aI0
aI0
aI0
aI0
aI0
aI0
aI0
aa(lp149
I1
aI1
aI1
aI1
aI1
aI1
aI1
aI1
aI1
aI1
aI1
aI1
aI1
aI1
aI1
aI1
aI1
aI1
aI1
aI1
aI1
aI1
aI1
aI1
aI1
aI1
aI1
aI1
aI1
aI1
aI1
aI1
aI1
aI1
aI1
aI1
aI1
aI1
aI1
aI1
aI1
aI1
aI1
aI1
aI1
aI1
aaI15
a(lp150
cdatetime
datetime
p151
(S'\x07\xe2\x01\x01\x0c\x00\x00\x00\x00\x00'
p152
tp153
Rp154
ag151
(S'\x07\xe2\x01\x01\r\x00\x00\x00\x00\x00'
p155
tp156
Rp157
ag151
(S'\x07\xe2\x01\x01\x0e\x00\x00\x00\x00\x00'
p158
tp159
Rp160
ag151
(S'\x07\xe2\x01\x01\x0f\x00\x00\x00\x00\x00'
p161
tp162
Rp163
ag151
(S'\x07\xe2\x01\x01\x10\x00\x00\x00\x00\x00'
p164
tp165
Rp166
ag151
(S'\x07\xe2\x01\x01\x12\x00\x00\x00\x00\x00'
p167
tp168
Rp169
ag151
(S'\x07\xe2\x01\x01\x15\x00\x00\x00\x00\x00'
p170
tp171
Rp172
ag151
(S'\x07\xe2\x01\x02\x01\x00\x00\x00\x00\x00'
p173
tp174
Rp175
ag151
(S'\x07\xe2\x01\x02\x05\x00\x00\x00\x00\x00'
p176
tp177
Rp178
ag151
(S'\x07\xe2\x01\x02\t\x00\x00\x00\x00\x00'
p179
tp180
Rp181
ag151
(S'\x07\xe2\x01\x02\r\x00\x00\x00\x00\x00'
p182
tp183
Rp184
ag151
(S'\x07\xe2\x01\x02\x11\x00\x00\x00\x00\x00'
p185
tp186
Rp187
ag151
(S'\x07\xe2\x01\x02\x15\x00\x00\x00\x00\x00'
p188
tp189
Rp190
ag151
(S'\x07\xe2\x01\x03\x01\x00\x00\x00\x00\x00'
p191
tp192
Rp193
ag151
(S'\x07\xe2\x01\x03\x05\x00\x00\x00\x00\x00'
p194
tp195
Rp196
ag151
(S'\x07\xe2\x01\x03\t\x00\x00\x00\x00\x00'
p197
tp198
Rp199
ag151
(S'\x07\xe2\x01\x03\r\x00\x00\x00\x00\x00'
p200
tp201
Rp202
ag151
(S'\x07\xe2\x01\x03\x11\x00\x00\x00\x00\x00'
p203
tp204
Rp205
ag151
(S'\x07\xe2\x01\x03\x15\x00\x00\x00\x00\x00'
p206
tp207
Rp208
ag151
(S'\x07\xe2\x01\x04\x01\x00\x00\x00\x00\x00'
p209
tp210
Rp211
ag151
(S'\x07\xe2\x01\x04\x05\x00\x00\x00\x00\x00'
p212
tp213
Rp214
ag151
(S'\x07\xe2\x01\x04\t\x00\x00\x00\x00\x00'
p215
tp216
Rp217
ag151
(S'\x07\xe2\x01\x04\r\x00\x00\x00\x00\x00'
p218
tp219
Rp220
ag151
(S'\x07\xe2\x01\x04\x11\x00\x00\x00\x00\x00'
p221
tp222
Rp223
ag151
(S'\x07\xe2\x01\x04\x15\x00\x00\x00\x00\x00'
p224
tp225
Rp226
ag151
(S'\x07\xe2\x01\x05\x01\x00\x00\x00\x00\x00'
p227
tp228
Rp229
ag151
(S'\x07\xe2\x01\x05\x05\x00\x00\x00\x00\x00'
p230
tp231
Rp232
ag151
(S'\x07\xe2\x01\x05\t\x00\x00\x00\x00\x00'
p233
tp234
Rp235
ag151
(S'\x07\xe2\x01\x05\r\x00\x00\x00\x00\x00'
p236
tp237
Rp238
ag151
(S'\x07\xe2\x01\x05\x11\x00\x00\x00\x00\x00'
p239
tp240
Rp241
ag151
(S'\x07\xe2\x01\x05\x15\x00\x00\x00\x00\x00'
p242
tp243
Rp244
ag151
(S'\x07\xe2\x01\x06\x01\x00\x00\x00\x00\x00'
p245
tp246
Rp247
ag151
(S'\x07\xe2\x01\x06\x05\x00\x00\x00\x00\x00'
p248
tp249
Rp250
ag151
(S'\x07\xe2\x01\x06\t\x00\x00\x00\x00\x00'
p251
tp252
Rp253
ag151
(S'\x07\xe2\x01\x06\r\x00\x00\x00\x00\x00'
p254
tp255
Rp256
ag151
(S'\x07\xe2\x01\x06\x11\x00\x00\x00\x00\x00'
p257
tp258
Rp259
ag151
(S'\x07\xe2\x01\x06\x15\x00\x00\x00\x00\x00'
p260
tp261
Rp262
ag151
(S'\x07\xe2\x01\x07\x01\x00\x00\x00\x00\x00'
p263
tp264
Rp265
ag151
(S'\x07\xe2\x01\x07\x05\x00\x00\x00\x00\x00'
p266
tp267
Rp268
ag151
(S'\x07\xe2\x01\x07\t\x00\x00\x00\x00\x00'
p269
tp270
Rp271
ag151
(S'\x07\xe2\x01\x07\r\x00\x00\x00\x00\x00'
p272
tp273
Rp274
ag151
(S'\x07\xe2\x01\x07\x11\x00\x00\x00\x00\x00'
p275
tp276
Rp277
ag151
(S'\x07\xe2\x01\x07\x15\x00\x00\x00\x00\x00'
p278
tp279
Rp280
ag151
(S'\x07\xe2\x01\x08\x01\x00\x00\x00\x00\x00'
p281
tp282
Rp283
ag151
(S'\x07\xe2\x01\x08\x05\x00\x00\x00\x00\x00'
p284
tp285
Rp286
ag151
(S'\x07\xe2\x01\x08\t\x00\x00\x00\x00\x00'
p287
tp288
Rp289
aa(lp290
I2
aI3
aI3
aI3
aI3
aI2
aI1
aI0
aI0
aI0
aI0
aI0
aI0
aI0
aI0
aI0
aI0
aI0
aI0
aI0
aI0
aI0
aI0
aI0
aI0
aI0
aI0
aI0
aI0
aI0
aI0
aI0
aI0
aI0
aI0
aI0
aI0
aI0
aI0
aI0
aI0
aI0
aI0
aI0
aI0
aI0
aa(lp291
g3
(g4
(S'f8'
p292
I0
I1
tp293
Rp294
(I3
S'<'
p295
NNNI-1
I-1
I0
tp296
bS'%\xc3\xc8\xfe\xf8\xb7\x0b@'
p297
tp298
Rp299
ag3
(g294
S'\xed%\xcb\xf8\xbe5\x10@'
p300
tp301
Rp302
ag3
(g294
S'\x8d\xef\xf7\x07\x13\x16\x12@'
p303
tp304
Rp305
ag3
(g294
S'\x1a,\x89\x07\x8f\xe3\x13@'
p306
tp307
Rp308
ag3
(g294
S'dY\xee-\xa32\x15@'
p309
tp310
Rp311
ag3
(g294
S'wP;p1\xdd\x15@'
p312
tp313
Rp314
ag3
(g294
S'0\xc3T&\xd9E\x13@'
p315
tp316
Rp317
ag3
(g294
S'=\xe3z\xf5\x13x\x10@'
p318
tp319
Rp320
ag3
(g294
S'$\xbdK@#\xc1\x0b@'
p321
tp322
Rp323
ag3
(g294
S'\xa7\x8a\xa8\xd6\x01\xff\x06@'
p324
tp325
Rp326
ag3
(g294
S'\x9c\x85\xb5:\xc5\xb1\r@'
p327
tp328
Rp329
ag3
(g294
S'Y\xf9\xe7\xab\x14\xc1\x12@'
p330
tp331
Rp332
ag3
(g294
S'b\x93\xe7\xcaP\xe3\x13@'
p333
tp334
Rp335
ag3
(g294
S'\xf8k)c.\n\x11@'
p336
tp337
Rp338
ag3
(g294
S'\xd6\xb6>\xff\x8b\xce\x0c@'
p339
tp340
Rp341
ag3
(g294
S'c\xd3\xc9v\x89\xf5\x07@'
p342
tp343
Rp344
ag3
(g294
S'\x92\x08"XR\x91\x0e@'
p345
tp346
Rp347
ag3
(g294
S"h\xc3\x9e\xff\xa8'\x13@"
p348
tp349
Rp350
ag3
(g294
S'E\xdeJ\xf6^B\x14@'
p351
tp352
Rp353
ag3
(g294
S'\xf2\xadN&vb\x11@'
p354
tp355
Rp356
ag3
(g294
S'h[Kr\x84q\r@'
p357
tp358
Rp359
ag3
(g294
S'\xec\x0c\x87\xad\xde\x8a\x08@'
p360
tp361
Rp362
ag3
(g294
S'T\\\xf9\xab\xf5\x18\x0f@'
p363
tp364
Rp365
ag3
(g294
S'{uv\x9e\xf6e\x13@'
p366
tp367
Rp368
ag3
(g294
S'\xc0&8\x86$|\x14@'
p369
tp370
Rp371
ag3
(g294
S'\x00p\xb6Y%\x98\x11@'
p372
tp373
Rp374
ag3
(g294
S'\xc7\x80|\x08\xb0\xd4\r@'
p375
tp376
Rp377
ag3
(g294
S'\xe5b\x8b=\xd0\xe5\x08@'
p378
tp379
Rp380
ag3
(g294
S'|\xdcN\x8a\xa4k\x0f@'
p381
tp382
Rp383
ag3
(g294
S'\x12i\xdb/\xf7\x8b\x13@'
p384
tp385
Rp386
ag3
(g294
S'R+\x0c\x14e\x9f\x14@'
p387
tp388
Rp389
ag3
(g294
S'\xb0\xa1C?\xea\xb8\x11@'
p390
tp391
Rp392
ag3
(g294
S'g|\xa9\xd8>\x11\x0e@'
p393
tp394
Rp395
ag3
(g294
S'V\xb4U\xbd_\x1d\t@'
p396
tp397
Rp398
ag3
(g294
S'?\x82\xe1\x84/\x9e\x0f@'
p399
tp400
Rp401
ag3
(g294
S'b\xb3\xbcE4\xa3\x13@'
p402
tp403
Rp404
ag3
(g294
S'\xe1(\x9b\xf8\xf4\xb4\x14@'
p405
tp406
Rp407
ag3
(g294
S'*\x1eQb\xf6\xcc\x11@'
p408
tp409
Rp410
ag3
(g294
S'\xc2\x91\xa9bM6\x0e@'
p411
tp412
Rp413
ag3
(g294
S'\x08\x8f\xbd\xeaa?\t@'
p414
tp415
Rp416
ag3
(g294
S'(\x9cS."\xbd\x0f@'
p417
tp418
Rp419
ag3
(g294
S'\\\xf4\xb9\xc1o\xb1\x13@'
p420
tp421
Rp422
ag3
(g294
S'L9\xa6\x16*\xc2\x14@'
p423
tp424
Rp425
ag3
(g294
S'\xe8\xc9\xa0`>\xd9\x11@'
p426
tp427
Rp428
ag3
(g294
S'/\r\t\xc5\x01M\x0e@'
p429
tp430
Rp431
ag3
(g294
S'\x8a\xb04\x199T\t@'
p432
tp433
Rp434
aa(lp435
I4
aI6
aI7
aI8
aI9
aI10
aI8
aI6
aI4
aI2
aI5
aI8
aI8
aI6
aI4
aI3
aI5
aI8
aI9
aI7
aI5
aI3
aI5
aI8
aI9
aI7
aI5
aI3
aI5
aI8
aI9
aI7
aI5
aI3
aI5
aI8
aI9
aI7
aI5
aI3
aI5
aI8
aI9
aI7
aI5
aI3
aaF32.608695652173914
a(lp436
I0
aI1
aI1
aI1
aI1
aI0
aI0
aI0
aI0
aI1
aI1
aI1
aI0
aI0
aI0
aI1
aI1
aI1
aI0
aI0
aI0
aI1
aI1
aI1
aI0
aI0
aI0
aI1
aI1
aI1
aI0
aI0
aI0
aI1
aI1
aI1
aI0
aI0
aI0
aI1
aI1
aI1
aI0
aI0
aI0
aI1
aa(lp437
F1.0
aF0.8
aF0.8
aF0.6
aF0.3
aF0.0
aF0.0
aF0.0
aF0.0
aF0.6
aF0.8
aF0.3
aF0.0
aF0.0
aF0.0
aF0.6
aF0.8
aF0.3
aF0.0
aF0.0
aF0.0
aF0.6
aF0.8
aF0.3
aF0.0
aF0.0
aF0.0
aF0.6
aF0.8
aF0.3
aF0.0
aF0.0
aF0.0
aF0.6
aF0.8
aF0.3
aF0.0
aF0.0
aF0.0
aF0.6
aF0.8
aF0.3
aF0.0
aF0.0
aF0.0
aF0.6
aa(lp438
F0.4
aF0.57
aF0.71
aF0.84
aF0.94
aF0.99
aF0.8
aF0.59
aF0.4
aF0.23
aF0.47
aF0.76
aF0.84
aF0.64
aF0.44
aF0.26
aF0.51
aF0.79
aF0.87
aF0.66
aF0.46
aF0.28
aF0.53
aF0.81
aF0.89
aF0.68
aF0.48
aF0.3
aF0.54
aF0.82
aF0.9
aF0.69
aF0.49
aF0.31
aF0.54
aF0.83
aF0.9
aF0.69
aF0.49
aF0.31
aF0.55
aF0.83
aF0.91
aF0.69
aF0.5
aF0.31
aa(lp439
I0
aI1
aI2
aI3
aI4
aI5
aI6
aI7
aI8
aI9
aI10
aI11
aI12
aI13
aI14
aI15
aI16
aI17
aI18
aI19
aI20
aI21
aI22
aI23
aI24
aI25
aI26
aI27
aI28
aI29
aI30
aI31
aI32
aI33
aI34
aI35
aI36
aI37
aI38
aI39
aI40
aI41
aI42
aI43
aI44
aI45
aI46
aI47
aI48
aI49
aI50
aI51
aI52
aI53
aI54
aI55
aI56
aI57
aI58
aI59
aI60
aI61
aI62
aI63
aI64
aI65
aI66
aI67
aI68
aI69
aI70
aI71
aI72
aI73
aI74
aI75
aI76
aI77
aI78
aI79
aI80
aI81
aI82
aI83
aI84
aI85
aI86
aI87
aI88
aI89
aI90
aI91
aI92
aI93
aI94
aI95
aI96
aI97
aI98
aI99
aI100
aI101
aI102
aI103
aI104
aI105
aI106
aI107
aI108
aI109
aI110
aI111
aI112
aI113
aI114
aI115
aI116
aI117
aI118
aI119
aI120
aI121
aI122
aI123
aI124
aI125
aI126
aI127
aI128
aI129
aI130
aI131
aI132
aI133
aI134
aI135
aI136
aI137
aI138
aI139
aI140
aI141
aI142
aI143
aI144
aI145
aI146
aI147
aI148
aI149
aI150
aI151
aI152
aI153
aI154
aI155
aI156
aI157
aI158
aI159
aI160
aI161
aI162
aI163
aI164
aI165
aI166
aI167
aI168
aI169
aI170
aI171
aI172
aI173
aI174
aI175
aI176
aI177
aI178
aI179
aI180
aI181
aI182
aI183
aI184
aI185
aI186
aI187
aI188
aI189
aI190
aI191
aI192
aI193
aI194
aI195
aI196
aI197
aI198
aI199
aI200
aI201
aI202
aI203
aI204
aI205
aI206
aI207
aI208
aI209
aI210
aI211
aI212
aI213
aI214
aI215
aI216
aI217
aI218
aI219
aI220
aI221
aI222
aI223
aI224
aI225
aI226
aI227
aI228
aI229
aI230
aI231
aI232
aI233
aI234
aI235
aI236
aI237
aI238
aI239
aI240
aI241
aI242
aI243
aI244
aI245
aI246
aI247
aI248
aI249
aI250
aI251
aI252
aI253
aI254
aI255
aI256
aI257
aI258
aI259
aI260
aI261
aI262
aI263
aI264
aI265
aI266
aI267
aI268
aI269
aI270
aI271
aI272
aI273
aI274
aI275
aI276
aI277
aI278
aI279
aI280
aI281
aI282
aI283
aI284
aI285
aI286
aI287
aI288
aI289
aI290
aI291
aI292
aI293
aI294
aI295
aI296
aI297
aI298
aI299
aI300
aI301
aI302
aI303
aI304
aI305
aI306
aI307
aI308
aI309
aI310
aI311
aI312
aI313
aI314
aI315
aI316
aI317
aI318
aI319
aI320
aI321
aI322
aI323
aI324
aI325
aI326
aI327
aI328
aI329
aI330
aI331
aI332
aI333
aI334
aI335
aI336
aI337
aI338
aI339
aI340
aI341
aI342
aI343
aI344
aI345
aI346
aI347
aI348
aI349
aI350
aI351
aI352
aI353
aI354
aI355
aI356
aI357
aI358
aI359
aI360
aI361
aI362
aI363
aI364
aI365
aI366
aI367
aI368
aI369
aI370
aI371
aI372
aI373
aI374
aI375
aI376
aI377
aI378
aI379
aI380
aI381
aI382
aI383
aI384
aI385
aI386
aI387
aI388
aI389
aI390
aI391
aI392
aI393
aI394
aI395
aI396
aI397
aI398
aI399
aI400
aI401
aI402
aI403
aI404
aI405
aI406
aI407
aI408
aI409
aI410
aI411
aI412
aI413
aI414
aI415
aI416
aI417
aI418
aI419
aI420
aI421
aI422
aI423
aI424
aI425
aI426
aI427
aI428
aI429
aI430
aI431
aI432
aI433
aI434
aI435
aI436
aI437
aI438
aI439
aI440
aI441
aI442
aI443
aI444
aI445
aI446
aI447
aI448
aI449
aI450
aI451
aI452
aI453
aI454
aI455
aI456
aI457
aI458
aI459
aI460
aI461
aI462
aI463
aI464
aI465
aI466
aI467
aI468
aI469
aI470
aI471
aI472
aI473
aI474
aI475
aI476
aI477
aI478
aI479
aI480
aI481
aI482
aI483
aI484
aI485
aI486
aI487
aI488
aI489
aI490
aI491
aI492
aI493
aI494
aI495
aI496
aI497
aI498
aI499
aI500
aI501
aI502
aI503
aI504
aI505
aI506
aI507
aI508
aI509
aI510
aI511
aI512
aI513
aI514
aI515
aI516
aI517
aI518
aI519
aI520
aI521
aI522
aI523
aI524
aI525
aI526
aI527
aI528
aI529
aI530
aI531
aI532
aI533
aI534
aI535
aI536
aI537
aI538
aI539
aI540
aI541
aI542
aI543
aI544
aI545
aI546
aI547
aI548
aI549
aI550
aI551
aI552
aI553
aI554
aI555
aI556
aI557
aI558
aI559
aI560
aI561
aI562
aI563
aI564
aI565
aI566
aI567
aI568
aI569
aI570
aI571
aI572
aI573
aI574
aI575
aI576
aI577
aI578
aI579
aI580
aI581
aI582
aI583
aI584
aI585
aI586
aI587
aI588
aI589
aI590
aI591
aI592
aI593
aI594
aI595
aI596
aI597
aI598
aI599
aI600
aI601
aI602
aI603
aI604
aI605
aI606
aI607
aI608
aI609
aI610
aI611
aI612
aI613
aI614
aI615
aI616
aI617
aI618
aI619
aI620
aI621
aI622
aI623
aI624
aI625
aI626
aI627
aI628
aI629
aI630
aI631
aI632
aI633
aI634
aI635
aI636
aI637
aI638
aI639
aI640
aI641
aI642
aI643
aI644
aI645
aI646
aI647
aI648
aI649
aI650
aI651
aI652
aI653
aI654
aI655
aI656
aI657
aI658
aI659
aI660
aI661
aI662
aI663
aI664
aI665
aI666
aI667
aI668
aI669
aI670
aI671
aI672
aI673
aI674
aI675
aI676
aI677
aI678
aI679
aI680
aI681
aI682
aI683
aI684
aI685
aI686
aI687
aI688
aI689
aI690
aI691
aI692
aI693
aI694
aI695
aI696
aI697
aI698
aI699
aI700
aI701
aI702
aI703
aI704
aI705
aI706
aI707
aI708
aI709
aI710
aI711
aI712
aI713
aI714
aI715
aI716
aI717
aI718
aI719
aI720
aI721
aI722
aI723
aI724
aI725
aI726
aI727
aI728
aI729
aI730
aI731
aI732
aI733
aI734
aI735
aI736
aI737
aI738
aI739
aI740
aI741
aI742
aI743
aI744
aI745
aI746
aI747
aI748
aI749
aI750
aI751
aI752
aI753
aI754
aI755
aI756
aI757
aI758
aI759
aI760
aI761
aI762
aI763
aI764
aI765
aI766
aI767
aI768
aI769
aI770
aI771
aI772
aI773
aI774
aI775
aI776
aI777
aI778
aI779
aI780
aI781
aI782
aI783
aI784
aI785
aI786
aI787
aI788
aI789
aI790
aI791
aI792
aI793
aI794
aI795
aI796
aI797
aI798
aI799
aI800
aI801
aI802
aI803
aI804
aI805
aI806
aI807
aI808
aI809
aI810
aI811
aI812
aI813
aI814
aI815
aI816
aI817
aI818
aI819
aI820
aI821
aI822
aI823
aI824
aI825
aI826
aI827
aI828
aI829
aI830
aI831
aI832
aI833
aI834
aI835
aI836
aI837
aI838
aI839
aI840
aI841
aI842
aI843
aI844
aI845
aI846
aI847
aI848
aI849
aI850
aI851
aI852
aI853
aI854
aI855
aI856
aI857
aI858
aI859
aI860
aI861
aI862
aI863
aI864
aI865
aI866
aI867
aI868
aI869
aI870
aI871
aI872
aI873
aI874
aI875
aI876
aI877
aI878
aI879
aI880
aI881
aI882
aI883
aI884
aI885
aI886
aI887
aI888
aI889
aI890
aI891
aI892
aI893
aI894
aI895
aI896
aI897
aI898
aI899
aI900
aI901
aI902
aI903
aI904
aI905
aI906
aI907
aI908
aI909
aI910
aI911
aI912
aI913
aI914
aI915
aI916
aI917
aI918
aI919
aI920
aI921
aI922
aI923
aI924
aI925
aI926
aI927
aI928
aI929
aI930
aI931
aI932
aI933
aI934
aI935
aI936
aI937
aI938
aI939
aI940
aI941
aI942
aI943
aI944
aI945
aI946
aI947
aI948
aI949
aI950
aI951
aI952
aI953
aI954
aI955
aI956
aI957
aI958
aI959
aI960
aI961
aI962
aI963
aI964
aI965
aI966
aI967
aI968
aI969
aa(lp440
I0
aI0
aI0
aI0
aI0
aI0
aI0
aI0
aI0
aI0
aI0
aI0
aI0
aI0
aI0
aI0
aI0
aI0
aI5
aI0
aI0
aI0
aI0
aI0
aI0
aI1
aI0
aI0
aI13
aI0
aI4
aI0
aI0
aI1
aI2
aI1
aI0
aI3
aI1
aI0
aI1
aI2
aI0
aI0
aI0
aI0
aI0
aI1
aI0
aI2
aI0
aI1
aI0
aI0
aI0
aI0
aI0
aI0
aI0
aI0
aI0
aI0
aI0
aI0
aI0
aI1
aI0
aI2
aI0
aI1
aI1
aI1
aI0
aI1
aI0
aI0
aI1
aI1
aI1
aI1
aI1
aI1
aI2
aI1
aI1
aI1
aI1
aI0
aI1
aI0
aI1
aI1
aI0
aI1
aI1
aI0
aI1
aI1
aI1
aI1
aI1
aI1
aI1
aI1
aI1
aI1
aI1
aI1
aI0
aI1
aI1
aI1
aI1
aI1
aI1
aI1
aI1
aI1
aI1
aI1
aI2
aI1
aI1
aI0
aI1
aI0
aI1
aI1
aI1
aI1
aI1
aI1
aI1
aI1
aI1
aI1
aI1
aI1
aI1
aI1
aI1
aI0
aI1
aI1
aI1
aI1
aI1
aI2
aI1
aI1
aI0
aI1
aI1
aI1
aI1
aI1
aI1
aI0
aI1
aI1
aI1
aI1
aI1
aI1
aI1
aI1
aI1
aI1
aI1
aI1
aI1
aI1
aI1
aI0
aI1
aI0
aI1
aI1
aI1
aI1
aI1
aI1
aI1
aI1
aI1
aI1
aI1
aI1
aI0
aI1
aI1
aI1
aI1
aI1
aI0
aI0
aI1
aI1
aI0
aI1
aI1
aI1
aI1
aI1
aI1
aI1
aI1
aI1
aI1
aI1
aI1
aI1
aI0
aI1
aI1
aI1
aI1
aI1
aI1
aI1
aI1
aI0
aI1
aI1
aI1
aI1
aI1
aI1
aI1
aI1
aI1
aI2
aI0
aI0
aI0
aI0
aI0
aI0
aI0
aI0
aI0
aI0
aI0
aI0
aI0
aI0
aI0
aI0
aI0
aI0
aI0
aI0
aI0
aI0
aI0
aI0
aI0
aI0
aI0
aI0
aI0
aI0
aI0
aI0
aI0
aI0
aI0
aI0
aI0
aI0
aI0
aI0
aI0
aI0
aI0
aI0
aI0
aI0
aI0
aI0
aI0
aI0
aI0
aI0
aI0
aI0
aI0
aI0
aI0
aI1
aI1
aI1
aI1
aI1
aI1
aI1
aI1
aI0
aI1
aI0
aI1
aI1
aI1
aI1
aI1
aI1
aI1
aI1
aI1
aI1
aI2
aI0
aI1
aI1
aI1
aI1
aI1
aI1
aI1
aI1
aI1
aI1
aI1
aI1
aI1
aI1
aI1
aI1
aI1
aI1
aI1
aI2
aI1
aI1
aI1
aI1
aI1
aI1
aI1
aI0
aI0
aI1
aI1
aI0
aI1
aI1
aI1
aI1
aI1
aI0
aI1
aI0
aI1
aI1
aI1
aI1
aI1
aI1
aI1
aI1
aI1
aI1
aI1
aI1
aI1
aI1
aI1
aI1
aI1
aI1
aI1
aI1
aI1
aI1
aI1
aI1
aI1
aI1
aI1
aI1
aI0
aI1
aI1
aI1
aI1
aI1
aI1
aI1
aI0
aI1
aI1
aI1
aI0
aI1
aI1
aI1
aI1
aI0
aI1
aI1
aI1
aI1
aI1
aI0
aI1
aI1
aI1
aI0
aI1
aI1
aI1
aI2
aI0
aI2
aI1
aI1
aI0
aI1
aI1
aI1
aI1
aI1
aI0
aI1
aI1
aI0
aI1
aI1
aI1
aI1
aI1
aI1
aI1
aI1
aI1
aI1
aI1
aI1
aI1
aI1
aI0
aI1
aI0
aI1
aI2
aI0
aI1
aI1
aI1
aI1
aI1
aI1
aI1
aI1
aI1
aI1
aI1
aI1
aI1
aI1
aI1
aI0
aI1
aI1
aI1
aI1
aI1
aI1
aI1
aI1
aI1
aI1
aI1
aI1
aI1
aI1
aI1
aI1
aI1
aI0
aI1
aI1
aI1
aI1
aI1
aI1
aI1
aI1
aI1
aI0
aI1
aI2
aI1
aI1
aI1
aI1
aI1
aI1
aI1
aI1
aI1
aI0
aI0
aI1
aI1
aI1
aI1
aI0
aI2
aI1
aI1
aI1
aI1
aI1
aI1
aI0
aI1
aI1
aI1
aI1
aI1
aI1
aI1
aI1
aI1
aI1
aI1
aI1
aI1
aI1
aI1
aI1
aI1
aI1
aI1
aI1
aI1
aI1
aI1
aI1
aI1
aI1
aI1
aI1
aI0
aI1
aI1
aI1
aI1
aI2
aI1
aI1
aI1
aI1
aI1
aI1
aI1
aI1
aI1
aI1
aI1
aI1
aI1
aI1
aI0
aI1
aI1
aI0
aI1
aI1
aI1
aI1
aI1
aI1
aI1
aI1
aI1
aI1
aI1
aI1
aI1
aI2
aI1
aI1
aI1
aI1
aI0
aI1
aI1
aI1
aI0
aI1
aI1
aI1
aI1
aI1
aI1
aI1
aI1
aI1
aI1
aI1
aI1
aI1
aI1
aI1
aI1
aI1
aI1
aI0
aI1
aI1
aI0
aI1
aI1
aI0
aI1
aI1
aI1
aI1
aI1
aI1
aI1
aI0
aI0
aI1
aI1
aI0
aI1
aI1
aI1
aI1
aI1
aI1
aI1
aI1
aI1
aI1
aI1
aI1
aI1
aI1
aI1
aI1
aI0
aI1
aI1
aI1
aI1
aI1
aI1
aI2
aI1
aI1
aI1
aI1
aI0
aI1
aI1
aI1
aI1
aI1
aI0
aI0
aI1
aI1
aI1
aI1
aI1
aI1
aI1
aI1
aI1
aI1
aI1
aI1
aI1
aI1
aI1
aI0
aI1
aI0
aI1
aI1
aI1
aI0
aI1
aI1
aI0
aI1
aI1
aI1
aI1
aI0
aI1
aI1
aI1
aI1
aI0
aI1
aI1
aI1
aI1
aI1
aI1
aI1
aI1
aI1
aI1
aI1
aI1
aI1
aI1
aI1
aI1
aI1
aI1
aI1
aI1
aI1
aI1
aI1
aI1
aI1
aI1
aI1
aI0
aI0
aI0
aI0
aI0
aI0
aI0
aI0
aI0
aI0
aI0
aI0
aI0
aI0
aI0
aI0
aI0
aI0
aI0
aI0
aI0
aI0
aI5
aI1
aI1
aI1
aI0
aI1
aI1
aI1
aI0
aI1
aI1
aI1
aI1
aI1
aI0
aI1
aI1
aI1
aI1
aI1
aI1
aI0
aI1
aI1
aI1
aI1
aI1
aI1
aI1
aI1
aI1
aI1
aI3
aI1
aI1
aI1
aI1
aI1
aI1
aI1
aI1
aI1
aI1
aI2
aI0
aI1
aI1
aI1
aI1
aI1
aI1
aI1
aI1
aI1
aI2
aI1
aI1
aI1
aI1
aI1
aI1
aI1
aI1
aI1
aI1
aI1
aI0
aI1
aI1
aI1
aI1
aI0
aI1
aI1
aI1
aI1
aI1
aI1
aI0
aI1
aI0
aI1
aI1
aI2
aI1
aI1
aI1
aI1
aI0
aI1
aI1
aI1
aI1
aI1
aI1
aI5
aI1
aI1
aI1
aI1
aI1
aI1
aI1
aI1
aI1
aI1
aI1
aI1
aI0
aI1
aI1
aI1
aI0
aI1
aI1
aI1
aI1
aI1
aI0
aI1
aI1
aI1
aI1
aI1
aI1
aI1
aI1
aI1
aI0
aI1
aI1
aI1
aI1
aI1
aI1
aI1
aI1
aI1
aI1
aI1
aI1
aI0
aI1
aI1
aI1
aI2
aI0
aI0
aI1
aI1
aI1
aI1
aI1
aI1
aI1
aI1
aI1
aI1
aI0
aI1
aI1
aI1
aI1
aI1
aI1
aI1
aI1
aI2
aI1
aI1
aI1
aI1
aI1
aI1
aI1
aI1
aI1
aI1
aI1
aI1
aI0
aI1
aI1
aI1
aI1
aI1
aI1
aI1
aI1
aI1
aI1
aI1
aI1
aI0
aI4
aI1
aI1
aI1
aI1
aI1
aI1
aI1
aI0
aI0
aI0
aI0
aI0
aI0
aI0
aI0
aI0
aI0
aI0
aI0
aI0
aI0
aI0
aI0
aI0
aI0
aI0
aI15
aaS'2-QSimNN_TL_NE(curr_time_h_feed_SC_norm)-Rew30M-3-1h'
p441
aI969
a.