(lp0
(lp1
I10
aa(lp2
I2
aa(lp3
I9
aa(lp4
I1
aaI9
a(lp5
cdatetime
datetime
p6
(S'\x07\xe2\x01\x01\x0c\x00\x00\x00\x00\x00'
p7
tp8
Rp9
aa(lp10
I8
aa(lp11
cnumpy.core.multiarray
scalar
p12
(cnumpy
dtype
p13
(S'f8'
p14
I0
I1
tp15
Rp16
(I3
S'<'
p17
NNNI-1
I-1
I0
tp18
bS'R\xcb1.\xaa\xf9\x0b@'
p19
tp20
Rp21
aa(lp22
I4
aaF900.0
a(lp23
I0
aa(lp24
F1.0
aa(lp25
F0.41
aa.